
rtarget:     file format elf64-x86-64


Disassembly of section .init:

0000000000400bc8 <_init>:
  400bc8:	48 83 ec 08          	sub    $0x8,%rsp
  400bcc:	48 8b 05 25 44 20 00 	mov    0x204425(%rip),%rax        # 604ff8 <_DYNAMIC+0x1d0>
  400bd3:	48 85 c0             	test   %rax,%rax
  400bd6:	74 05                	je     400bdd <_init+0x15>
  400bd8:	e8 33 01 00 00       	callq  400d10 <__gmon_start__@plt>
  400bdd:	48 83 c4 08          	add    $0x8,%rsp
  400be1:	c3                   	retq   

Disassembly of section .plt:

0000000000400bf0 <strcasecmp@plt-0x10>:
  400bf0:	ff 35 12 44 20 00    	pushq  0x204412(%rip)        # 605008 <_GLOBAL_OFFSET_TABLE_+0x8>
  400bf6:	ff 25 14 44 20 00    	jmpq   *0x204414(%rip)        # 605010 <_GLOBAL_OFFSET_TABLE_+0x10>
  400bfc:	0f 1f 40 00          	nopl   0x0(%rax)

0000000000400c00 <strcasecmp@plt>:
  400c00:	ff 25 12 44 20 00    	jmpq   *0x204412(%rip)        # 605018 <_GLOBAL_OFFSET_TABLE_+0x18>
  400c06:	68 00 00 00 00       	pushq  $0x0
  400c0b:	e9 e0 ff ff ff       	jmpq   400bf0 <_init+0x28>

0000000000400c10 <__errno_location@plt>:
  400c10:	ff 25 0a 44 20 00    	jmpq   *0x20440a(%rip)        # 605020 <_GLOBAL_OFFSET_TABLE_+0x20>
  400c16:	68 01 00 00 00       	pushq  $0x1
  400c1b:	e9 d0 ff ff ff       	jmpq   400bf0 <_init+0x28>

0000000000400c20 <srandom@plt>:
  400c20:	ff 25 02 44 20 00    	jmpq   *0x204402(%rip)        # 605028 <_GLOBAL_OFFSET_TABLE_+0x28>
  400c26:	68 02 00 00 00       	pushq  $0x2
  400c2b:	e9 c0 ff ff ff       	jmpq   400bf0 <_init+0x28>

0000000000400c30 <strncmp@plt>:
  400c30:	ff 25 fa 43 20 00    	jmpq   *0x2043fa(%rip)        # 605030 <_GLOBAL_OFFSET_TABLE_+0x30>
  400c36:	68 03 00 00 00       	pushq  $0x3
  400c3b:	e9 b0 ff ff ff       	jmpq   400bf0 <_init+0x28>

0000000000400c40 <strcpy@plt>:
  400c40:	ff 25 f2 43 20 00    	jmpq   *0x2043f2(%rip)        # 605038 <_GLOBAL_OFFSET_TABLE_+0x38>
  400c46:	68 04 00 00 00       	pushq  $0x4
  400c4b:	e9 a0 ff ff ff       	jmpq   400bf0 <_init+0x28>

0000000000400c50 <puts@plt>:
  400c50:	ff 25 ea 43 20 00    	jmpq   *0x2043ea(%rip)        # 605040 <_GLOBAL_OFFSET_TABLE_+0x40>
  400c56:	68 05 00 00 00       	pushq  $0x5
  400c5b:	e9 90 ff ff ff       	jmpq   400bf0 <_init+0x28>

0000000000400c60 <write@plt>:
  400c60:	ff 25 e2 43 20 00    	jmpq   *0x2043e2(%rip)        # 605048 <_GLOBAL_OFFSET_TABLE_+0x48>
  400c66:	68 06 00 00 00       	pushq  $0x6
  400c6b:	e9 80 ff ff ff       	jmpq   400bf0 <_init+0x28>

0000000000400c70 <mmap@plt>:
  400c70:	ff 25 da 43 20 00    	jmpq   *0x2043da(%rip)        # 605050 <_GLOBAL_OFFSET_TABLE_+0x50>
  400c76:	68 07 00 00 00       	pushq  $0x7
  400c7b:	e9 70 ff ff ff       	jmpq   400bf0 <_init+0x28>

0000000000400c80 <printf@plt>:
  400c80:	ff 25 d2 43 20 00    	jmpq   *0x2043d2(%rip)        # 605058 <_GLOBAL_OFFSET_TABLE_+0x58>
  400c86:	68 08 00 00 00       	pushq  $0x8
  400c8b:	e9 60 ff ff ff       	jmpq   400bf0 <_init+0x28>

0000000000400c90 <memset@plt>:
  400c90:	ff 25 ca 43 20 00    	jmpq   *0x2043ca(%rip)        # 605060 <_GLOBAL_OFFSET_TABLE_+0x60>
  400c96:	68 09 00 00 00       	pushq  $0x9
  400c9b:	e9 50 ff ff ff       	jmpq   400bf0 <_init+0x28>

0000000000400ca0 <alarm@plt>:
  400ca0:	ff 25 c2 43 20 00    	jmpq   *0x2043c2(%rip)        # 605068 <_GLOBAL_OFFSET_TABLE_+0x68>
  400ca6:	68 0a 00 00 00       	pushq  $0xa
  400cab:	e9 40 ff ff ff       	jmpq   400bf0 <_init+0x28>

0000000000400cb0 <close@plt>:
  400cb0:	ff 25 ba 43 20 00    	jmpq   *0x2043ba(%rip)        # 605070 <_GLOBAL_OFFSET_TABLE_+0x70>
  400cb6:	68 0b 00 00 00       	pushq  $0xb
  400cbb:	e9 30 ff ff ff       	jmpq   400bf0 <_init+0x28>

0000000000400cc0 <read@plt>:
  400cc0:	ff 25 b2 43 20 00    	jmpq   *0x2043b2(%rip)        # 605078 <_GLOBAL_OFFSET_TABLE_+0x78>
  400cc6:	68 0c 00 00 00       	pushq  $0xc
  400ccb:	e9 20 ff ff ff       	jmpq   400bf0 <_init+0x28>

0000000000400cd0 <__libc_start_main@plt>:
  400cd0:	ff 25 aa 43 20 00    	jmpq   *0x2043aa(%rip)        # 605080 <_GLOBAL_OFFSET_TABLE_+0x80>
  400cd6:	68 0d 00 00 00       	pushq  $0xd
  400cdb:	e9 10 ff ff ff       	jmpq   400bf0 <_init+0x28>

0000000000400ce0 <signal@plt>:
  400ce0:	ff 25 a2 43 20 00    	jmpq   *0x2043a2(%rip)        # 605088 <_GLOBAL_OFFSET_TABLE_+0x88>
  400ce6:	68 0e 00 00 00       	pushq  $0xe
  400ceb:	e9 00 ff ff ff       	jmpq   400bf0 <_init+0x28>

0000000000400cf0 <gethostbyname@plt>:
  400cf0:	ff 25 9a 43 20 00    	jmpq   *0x20439a(%rip)        # 605090 <_GLOBAL_OFFSET_TABLE_+0x90>
  400cf6:	68 0f 00 00 00       	pushq  $0xf
  400cfb:	e9 f0 fe ff ff       	jmpq   400bf0 <_init+0x28>

0000000000400d00 <fprintf@plt>:
  400d00:	ff 25 92 43 20 00    	jmpq   *0x204392(%rip)        # 605098 <_GLOBAL_OFFSET_TABLE_+0x98>
  400d06:	68 10 00 00 00       	pushq  $0x10
  400d0b:	e9 e0 fe ff ff       	jmpq   400bf0 <_init+0x28>

0000000000400d10 <__gmon_start__@plt>:
  400d10:	ff 25 8a 43 20 00    	jmpq   *0x20438a(%rip)        # 6050a0 <_GLOBAL_OFFSET_TABLE_+0xa0>
  400d16:	68 11 00 00 00       	pushq  $0x11
  400d1b:	e9 d0 fe ff ff       	jmpq   400bf0 <_init+0x28>

0000000000400d20 <strtol@plt>:
  400d20:	ff 25 82 43 20 00    	jmpq   *0x204382(%rip)        # 6050a8 <_GLOBAL_OFFSET_TABLE_+0xa8>
  400d26:	68 12 00 00 00       	pushq  $0x12
  400d2b:	e9 c0 fe ff ff       	jmpq   400bf0 <_init+0x28>

0000000000400d30 <memcpy@plt>:
  400d30:	ff 25 7a 43 20 00    	jmpq   *0x20437a(%rip)        # 6050b0 <_GLOBAL_OFFSET_TABLE_+0xb0>
  400d36:	68 13 00 00 00       	pushq  $0x13
  400d3b:	e9 b0 fe ff ff       	jmpq   400bf0 <_init+0x28>

0000000000400d40 <time@plt>:
  400d40:	ff 25 72 43 20 00    	jmpq   *0x204372(%rip)        # 6050b8 <_GLOBAL_OFFSET_TABLE_+0xb8>
  400d46:	68 14 00 00 00       	pushq  $0x14
  400d4b:	e9 a0 fe ff ff       	jmpq   400bf0 <_init+0x28>

0000000000400d50 <random@plt>:
  400d50:	ff 25 6a 43 20 00    	jmpq   *0x20436a(%rip)        # 6050c0 <_GLOBAL_OFFSET_TABLE_+0xc0>
  400d56:	68 15 00 00 00       	pushq  $0x15
  400d5b:	e9 90 fe ff ff       	jmpq   400bf0 <_init+0x28>

0000000000400d60 <_IO_getc@plt>:
  400d60:	ff 25 62 43 20 00    	jmpq   *0x204362(%rip)        # 6050c8 <_GLOBAL_OFFSET_TABLE_+0xc8>
  400d66:	68 16 00 00 00       	pushq  $0x16
  400d6b:	e9 80 fe ff ff       	jmpq   400bf0 <_init+0x28>

0000000000400d70 <__isoc99_sscanf@plt>:
  400d70:	ff 25 5a 43 20 00    	jmpq   *0x20435a(%rip)        # 6050d0 <_GLOBAL_OFFSET_TABLE_+0xd0>
  400d76:	68 17 00 00 00       	pushq  $0x17
  400d7b:	e9 70 fe ff ff       	jmpq   400bf0 <_init+0x28>

0000000000400d80 <munmap@plt>:
  400d80:	ff 25 52 43 20 00    	jmpq   *0x204352(%rip)        # 6050d8 <_GLOBAL_OFFSET_TABLE_+0xd8>
  400d86:	68 18 00 00 00       	pushq  $0x18
  400d8b:	e9 60 fe ff ff       	jmpq   400bf0 <_init+0x28>

0000000000400d90 <bcopy@plt>:
  400d90:	ff 25 4a 43 20 00    	jmpq   *0x20434a(%rip)        # 6050e0 <_GLOBAL_OFFSET_TABLE_+0xe0>
  400d96:	68 19 00 00 00       	pushq  $0x19
  400d9b:	e9 50 fe ff ff       	jmpq   400bf0 <_init+0x28>

0000000000400da0 <fopen@plt>:
  400da0:	ff 25 42 43 20 00    	jmpq   *0x204342(%rip)        # 6050e8 <_GLOBAL_OFFSET_TABLE_+0xe8>
  400da6:	68 1a 00 00 00       	pushq  $0x1a
  400dab:	e9 40 fe ff ff       	jmpq   400bf0 <_init+0x28>

0000000000400db0 <getopt@plt>:
  400db0:	ff 25 3a 43 20 00    	jmpq   *0x20433a(%rip)        # 6050f0 <_GLOBAL_OFFSET_TABLE_+0xf0>
  400db6:	68 1b 00 00 00       	pushq  $0x1b
  400dbb:	e9 30 fe ff ff       	jmpq   400bf0 <_init+0x28>

0000000000400dc0 <strtoul@plt>:
  400dc0:	ff 25 32 43 20 00    	jmpq   *0x204332(%rip)        # 6050f8 <_GLOBAL_OFFSET_TABLE_+0xf8>
  400dc6:	68 1c 00 00 00       	pushq  $0x1c
  400dcb:	e9 20 fe ff ff       	jmpq   400bf0 <_init+0x28>

0000000000400dd0 <gethostname@plt>:
  400dd0:	ff 25 2a 43 20 00    	jmpq   *0x20432a(%rip)        # 605100 <_GLOBAL_OFFSET_TABLE_+0x100>
  400dd6:	68 1d 00 00 00       	pushq  $0x1d
  400ddb:	e9 10 fe ff ff       	jmpq   400bf0 <_init+0x28>

0000000000400de0 <sprintf@plt>:
  400de0:	ff 25 22 43 20 00    	jmpq   *0x204322(%rip)        # 605108 <_GLOBAL_OFFSET_TABLE_+0x108>
  400de6:	68 1e 00 00 00       	pushq  $0x1e
  400deb:	e9 00 fe ff ff       	jmpq   400bf0 <_init+0x28>

0000000000400df0 <exit@plt>:
  400df0:	ff 25 1a 43 20 00    	jmpq   *0x20431a(%rip)        # 605110 <_GLOBAL_OFFSET_TABLE_+0x110>
  400df6:	68 1f 00 00 00       	pushq  $0x1f
  400dfb:	e9 f0 fd ff ff       	jmpq   400bf0 <_init+0x28>

0000000000400e00 <connect@plt>:
  400e00:	ff 25 12 43 20 00    	jmpq   *0x204312(%rip)        # 605118 <_GLOBAL_OFFSET_TABLE_+0x118>
  400e06:	68 20 00 00 00       	pushq  $0x20
  400e0b:	e9 e0 fd ff ff       	jmpq   400bf0 <_init+0x28>

0000000000400e10 <socket@plt>:
  400e10:	ff 25 0a 43 20 00    	jmpq   *0x20430a(%rip)        # 605120 <_GLOBAL_OFFSET_TABLE_+0x120>
  400e16:	68 21 00 00 00       	pushq  $0x21
  400e1b:	e9 d0 fd ff ff       	jmpq   400bf0 <_init+0x28>

Disassembly of section .text:

0000000000400e20 <_start>:
  400e20:	31 ed                	xor    %ebp,%ebp
  400e22:	49 89 d1             	mov    %rdx,%r9
  400e25:	5e                   	pop    %rsi
  400e26:	48 89 e2             	mov    %rsp,%rdx
  400e29:	48 83 e4 f0          	and    $0xfffffffffffffff0,%rsp
  400e2d:	50                   	push   %rax
  400e2e:	54                   	push   %rsp
  400e2f:	49 c7 c0 b0 2d 40 00 	mov    $0x402db0,%r8
  400e36:	48 c7 c1 40 2d 40 00 	mov    $0x402d40,%rcx
  400e3d:	48 c7 c7 e0 10 40 00 	mov    $0x4010e0,%rdi
  400e44:	e8 87 fe ff ff       	callq  400cd0 <__libc_start_main@plt>
  400e49:	f4                   	hlt    
  400e4a:	66 90                	xchg   %ax,%ax
  400e4c:	0f 1f 40 00          	nopl   0x0(%rax)

0000000000400e50 <deregister_tm_clones>:
  400e50:	b8 b7 54 60 00       	mov    $0x6054b7,%eax
  400e55:	55                   	push   %rbp
  400e56:	48 2d b0 54 60 00    	sub    $0x6054b0,%rax
  400e5c:	48 83 f8 0e          	cmp    $0xe,%rax
  400e60:	48 89 e5             	mov    %rsp,%rbp
  400e63:	77 02                	ja     400e67 <deregister_tm_clones+0x17>
  400e65:	5d                   	pop    %rbp
  400e66:	c3                   	retq   
  400e67:	b8 00 00 00 00       	mov    $0x0,%eax
  400e6c:	48 85 c0             	test   %rax,%rax
  400e6f:	74 f4                	je     400e65 <deregister_tm_clones+0x15>
  400e71:	5d                   	pop    %rbp
  400e72:	bf b0 54 60 00       	mov    $0x6054b0,%edi
  400e77:	ff e0                	jmpq   *%rax
  400e79:	0f 1f 80 00 00 00 00 	nopl   0x0(%rax)

0000000000400e80 <register_tm_clones>:
  400e80:	b8 b0 54 60 00       	mov    $0x6054b0,%eax
  400e85:	55                   	push   %rbp
  400e86:	48 2d b0 54 60 00    	sub    $0x6054b0,%rax
  400e8c:	48 c1 f8 03          	sar    $0x3,%rax
  400e90:	48 89 e5             	mov    %rsp,%rbp
  400e93:	48 89 c2             	mov    %rax,%rdx
  400e96:	48 c1 ea 3f          	shr    $0x3f,%rdx
  400e9a:	48 01 d0             	add    %rdx,%rax
  400e9d:	48 d1 f8             	sar    %rax
  400ea0:	75 02                	jne    400ea4 <register_tm_clones+0x24>
  400ea2:	5d                   	pop    %rbp
  400ea3:	c3                   	retq   
  400ea4:	ba 00 00 00 00       	mov    $0x0,%edx
  400ea9:	48 85 d2             	test   %rdx,%rdx
  400eac:	74 f4                	je     400ea2 <register_tm_clones+0x22>
  400eae:	5d                   	pop    %rbp
  400eaf:	48 89 c6             	mov    %rax,%rsi
  400eb2:	bf b0 54 60 00       	mov    $0x6054b0,%edi
  400eb7:	ff e2                	jmpq   *%rdx
  400eb9:	0f 1f 80 00 00 00 00 	nopl   0x0(%rax)

0000000000400ec0 <__do_global_dtors_aux>:
  400ec0:	80 3d 11 46 20 00 00 	cmpb   $0x0,0x204611(%rip)        # 6054d8 <completed.6342>
  400ec7:	75 11                	jne    400eda <__do_global_dtors_aux+0x1a>
  400ec9:	55                   	push   %rbp
  400eca:	48 89 e5             	mov    %rsp,%rbp
  400ecd:	e8 7e ff ff ff       	callq  400e50 <deregister_tm_clones>
  400ed2:	5d                   	pop    %rbp
  400ed3:	c6 05 fe 45 20 00 01 	movb   $0x1,0x2045fe(%rip)        # 6054d8 <completed.6342>
  400eda:	f3 c3                	repz retq 
  400edc:	0f 1f 40 00          	nopl   0x0(%rax)

0000000000400ee0 <frame_dummy>:
  400ee0:	48 83 3d 38 3f 20 00 	cmpq   $0x0,0x203f38(%rip)        # 604e20 <__JCR_END__>
  400ee7:	00 
  400ee8:	74 1e                	je     400f08 <frame_dummy+0x28>
  400eea:	b8 00 00 00 00       	mov    $0x0,%eax
  400eef:	48 85 c0             	test   %rax,%rax
  400ef2:	74 14                	je     400f08 <frame_dummy+0x28>
  400ef4:	55                   	push   %rbp
  400ef5:	bf 20 4e 60 00       	mov    $0x604e20,%edi
  400efa:	48 89 e5             	mov    %rsp,%rbp
  400efd:	ff d0                	callq  *%rax
  400eff:	5d                   	pop    %rbp
  400f00:	e9 7b ff ff ff       	jmpq   400e80 <register_tm_clones>
  400f05:	0f 1f 00             	nopl   (%rax)
  400f08:	e9 73 ff ff ff       	jmpq   400e80 <register_tm_clones>
  400f0d:	0f 1f 00             	nopl   (%rax)

0000000000400f10 <usage>:
  400f10:	48 83 ec 08          	sub    $0x8,%rsp
  400f14:	48 89 fe             	mov    %rdi,%rsi
  400f17:	83 3d ea 45 20 00 00 	cmpl   $0x0,0x2045ea(%rip)        # 605508 <is_checker>
  400f1e:	74 39                	je     400f59 <usage+0x49>
  400f20:	bf d0 2d 40 00       	mov    $0x402dd0,%edi
  400f25:	b8 00 00 00 00       	mov    $0x0,%eax
  400f2a:	e8 51 fd ff ff       	callq  400c80 <printf@plt>
  400f2f:	bf 08 2e 40 00       	mov    $0x402e08,%edi
  400f34:	e8 17 fd ff ff       	callq  400c50 <puts@plt>
  400f39:	bf 80 2f 40 00       	mov    $0x402f80,%edi
  400f3e:	e8 0d fd ff ff       	callq  400c50 <puts@plt>
  400f43:	bf 30 2e 40 00       	mov    $0x402e30,%edi
  400f48:	e8 03 fd ff ff       	callq  400c50 <puts@plt>
  400f4d:	bf 9a 2f 40 00       	mov    $0x402f9a,%edi
  400f52:	e8 f9 fc ff ff       	callq  400c50 <puts@plt>
  400f57:	eb 2d                	jmp    400f86 <usage+0x76>
  400f59:	bf b6 2f 40 00       	mov    $0x402fb6,%edi
  400f5e:	b8 00 00 00 00       	mov    $0x0,%eax
  400f63:	e8 18 fd ff ff       	callq  400c80 <printf@plt>
  400f68:	bf 58 2e 40 00       	mov    $0x402e58,%edi
  400f6d:	e8 de fc ff ff       	callq  400c50 <puts@plt>
  400f72:	bf 80 2e 40 00       	mov    $0x402e80,%edi
  400f77:	e8 d4 fc ff ff       	callq  400c50 <puts@plt>
  400f7c:	bf d4 2f 40 00       	mov    $0x402fd4,%edi
  400f81:	e8 ca fc ff ff       	callq  400c50 <puts@plt>
  400f86:	bf 00 00 00 00       	mov    $0x0,%edi
  400f8b:	e8 60 fe ff ff       	callq  400df0 <exit@plt>

0000000000400f90 <initialize_target>:
  400f90:	55                   	push   %rbp
  400f91:	53                   	push   %rbx
  400f92:	48 81 ec 08 21 00 00 	sub    $0x2108,%rsp
  400f99:	89 f5                	mov    %esi,%ebp
  400f9b:	89 3d 57 45 20 00    	mov    %edi,0x204557(%rip)        # 6054f8 <check_level>
  400fa1:	8b 3d c1 41 20 00    	mov    0x2041c1(%rip),%edi        # 605168 <target_id>
  400fa7:	e8 6a 1d 00 00       	callq  402d16 <gencookie>
  400fac:	89 05 52 45 20 00    	mov    %eax,0x204552(%rip)        # 605504 <cookie>
  400fb2:	89 c7                	mov    %eax,%edi
  400fb4:	e8 5d 1d 00 00       	callq  402d16 <gencookie>
  400fb9:	89 05 41 45 20 00    	mov    %eax,0x204541(%rip)        # 605500 <authkey>
  400fbf:	8b 05 a3 41 20 00    	mov    0x2041a3(%rip),%eax        # 605168 <target_id>
  400fc5:	8d 78 01             	lea    0x1(%rax),%edi
  400fc8:	e8 53 fc ff ff       	callq  400c20 <srandom@plt>
  400fcd:	e8 7e fd ff ff       	callq  400d50 <random@plt>
  400fd2:	89 c7                	mov    %eax,%edi
  400fd4:	e8 cb 02 00 00       	callq  4012a4 <scramble>
  400fd9:	89 c3                	mov    %eax,%ebx
  400fdb:	85 ed                	test   %ebp,%ebp
  400fdd:	74 18                	je     400ff7 <initialize_target+0x67>
  400fdf:	bf 00 00 00 00       	mov    $0x0,%edi
  400fe4:	e8 57 fd ff ff       	callq  400d40 <time@plt>
  400fe9:	89 c7                	mov    %eax,%edi
  400feb:	e8 30 fc ff ff       	callq  400c20 <srandom@plt>
  400ff0:	e8 5b fd ff ff       	callq  400d50 <random@plt>
  400ff5:	eb 05                	jmp    400ffc <initialize_target+0x6c>
  400ff7:	b8 00 00 00 00       	mov    $0x0,%eax
  400ffc:	01 c3                	add    %eax,%ebx
  400ffe:	0f b7 db             	movzwl %bx,%ebx
  401001:	8d 04 dd 00 01 00 00 	lea    0x100(,%rbx,8),%eax
  401008:	89 c0                	mov    %eax,%eax
  40100a:	48 89 05 8f 44 20 00 	mov    %rax,0x20448f(%rip)        # 6054a0 <buf_offset>
  401011:	c6 05 10 51 20 00 72 	movb   $0x72,0x205110(%rip)        # 606128 <target_prefix>
  401018:	83 3d 89 44 20 00 00 	cmpl   $0x0,0x204489(%rip)        # 6054a8 <notify>
  40101f:	0f 84 b1 00 00 00    	je     4010d6 <initialize_target+0x146>
  401025:	83 3d dc 44 20 00 00 	cmpl   $0x0,0x2044dc(%rip)        # 605508 <is_checker>
  40102c:	0f 85 a4 00 00 00    	jne    4010d6 <initialize_target+0x146>
  401032:	be 00 01 00 00       	mov    $0x100,%esi
  401037:	48 89 e7             	mov    %rsp,%rdi
  40103a:	e8 91 fd ff ff       	callq  400dd0 <gethostname@plt>
  40103f:	85 c0                	test   %eax,%eax
  401041:	74 25                	je     401068 <initialize_target+0xd8>
  401043:	bf b0 2e 40 00       	mov    $0x402eb0,%edi
  401048:	e8 03 fc ff ff       	callq  400c50 <puts@plt>
  40104d:	bf 08 00 00 00       	mov    $0x8,%edi
  401052:	e8 99 fd ff ff       	callq  400df0 <exit@plt>
  401057:	48 89 e6             	mov    %rsp,%rsi
  40105a:	e8 a1 fb ff ff       	callq  400c00 <strcasecmp@plt>
  40105f:	85 c0                	test   %eax,%eax
  401061:	74 21                	je     401084 <initialize_target+0xf4>
  401063:	83 c3 01             	add    $0x1,%ebx
  401066:	eb 05                	jmp    40106d <initialize_target+0xdd>
  401068:	bb 00 00 00 00       	mov    $0x0,%ebx
  40106d:	48 63 c3             	movslq %ebx,%rax
  401070:	48 8b 3c c5 80 51 60 	mov    0x605180(,%rax,8),%rdi
  401077:	00 
  401078:	48 85 ff             	test   %rdi,%rdi
  40107b:	75 da                	jne    401057 <initialize_target+0xc7>
  40107d:	b8 00 00 00 00       	mov    $0x0,%eax
  401082:	eb 05                	jmp    401089 <initialize_target+0xf9>
  401084:	b8 01 00 00 00       	mov    $0x1,%eax
  401089:	85 c0                	test   %eax,%eax
  40108b:	75 17                	jne    4010a4 <initialize_target+0x114>
  40108d:	48 89 e6             	mov    %rsp,%rsi
  401090:	bf e8 2e 40 00       	mov    $0x402ee8,%edi
  401095:	e8 e6 fb ff ff       	callq  400c80 <printf@plt>
  40109a:	bf 08 00 00 00       	mov    $0x8,%edi
  40109f:	e8 4c fd ff ff       	callq  400df0 <exit@plt>
  4010a4:	48 8d bc 24 00 01 00 	lea    0x100(%rsp),%rdi
  4010ab:	00 
  4010ac:	e8 f9 19 00 00       	callq  402aaa <init_driver>
  4010b1:	85 c0                	test   %eax,%eax
  4010b3:	79 21                	jns    4010d6 <initialize_target+0x146>
  4010b5:	48 8d b4 24 00 01 00 	lea    0x100(%rsp),%rsi
  4010bc:	00 
  4010bd:	bf 28 2f 40 00       	mov    $0x402f28,%edi
  4010c2:	b8 00 00 00 00       	mov    $0x0,%eax
  4010c7:	e8 b4 fb ff ff       	callq  400c80 <printf@plt>
  4010cc:	bf 08 00 00 00       	mov    $0x8,%edi
  4010d1:	e8 1a fd ff ff       	callq  400df0 <exit@plt>
  4010d6:	48 81 c4 08 21 00 00 	add    $0x2108,%rsp
  4010dd:	5b                   	pop    %rbx
  4010de:	5d                   	pop    %rbp
  4010df:	c3                   	retq   

00000000004010e0 <main>:
  4010e0:	41 56                	push   %r14
  4010e2:	41 55                	push   %r13
  4010e4:	41 54                	push   %r12
  4010e6:	55                   	push   %rbp
  4010e7:	53                   	push   %rbx
  4010e8:	41 89 fc             	mov    %edi,%r12d
  4010eb:	48 89 f3             	mov    %rsi,%rbx
  4010ee:	be d1 1e 40 00       	mov    $0x401ed1,%esi
  4010f3:	bf 0b 00 00 00       	mov    $0xb,%edi
  4010f8:	e8 e3 fb ff ff       	callq  400ce0 <signal@plt>
  4010fd:	be 83 1e 40 00       	mov    $0x401e83,%esi
  401102:	bf 07 00 00 00       	mov    $0x7,%edi
  401107:	e8 d4 fb ff ff       	callq  400ce0 <signal@plt>
  40110c:	be 1f 1f 40 00       	mov    $0x401f1f,%esi
  401111:	bf 04 00 00 00       	mov    $0x4,%edi
  401116:	e8 c5 fb ff ff       	callq  400ce0 <signal@plt>
  40111b:	83 3d e6 43 20 00 00 	cmpl   $0x0,0x2043e6(%rip)        # 605508 <is_checker>
  401122:	74 20                	je     401144 <main+0x64>
  401124:	be 6d 1f 40 00       	mov    $0x401f6d,%esi
  401129:	bf 0e 00 00 00       	mov    $0xe,%edi
  40112e:	e8 ad fb ff ff       	callq  400ce0 <signal@plt>
  401133:	bf 05 00 00 00       	mov    $0x5,%edi
  401138:	e8 63 fb ff ff       	callq  400ca0 <alarm@plt>
  40113d:	bd f2 2f 40 00       	mov    $0x402ff2,%ebp
  401142:	eb 05                	jmp    401149 <main+0x69>
  401144:	bd ed 2f 40 00       	mov    $0x402fed,%ebp
  401149:	48 8b 05 70 43 20 00 	mov    0x204370(%rip),%rax        # 6054c0 <stdin@@GLIBC_2.2.5>
  401150:	48 89 05 99 43 20 00 	mov    %rax,0x204399(%rip)        # 6054f0 <infile>
  401157:	41 bd 00 00 00 00    	mov    $0x0,%r13d
  40115d:	41 be 00 00 00 00    	mov    $0x0,%r14d
  401163:	e9 b9 00 00 00       	jmpq   401221 <main+0x141>
  401168:	83 e8 61             	sub    $0x61,%eax
  40116b:	3c 10                	cmp    $0x10,%al
  40116d:	0f 87 93 00 00 00    	ja     401206 <main+0x126>
  401173:	0f b6 c0             	movzbl %al,%eax
  401176:	ff 24 c5 38 30 40 00 	jmpq   *0x403038(,%rax,8)
  40117d:	48 8b 3b             	mov    (%rbx),%rdi
  401180:	e8 8b fd ff ff       	callq  400f10 <usage>
  401185:	be cd 32 40 00       	mov    $0x4032cd,%esi
  40118a:	48 8b 3d 37 43 20 00 	mov    0x204337(%rip),%rdi        # 6054c8 <optarg@@GLIBC_2.2.5>
  401191:	e8 0a fc ff ff       	callq  400da0 <fopen@plt>
  401196:	48 89 05 53 43 20 00 	mov    %rax,0x204353(%rip)        # 6054f0 <infile>
  40119d:	48 85 c0             	test   %rax,%rax
  4011a0:	75 7f                	jne    401221 <main+0x141>
  4011a2:	48 8b 15 1f 43 20 00 	mov    0x20431f(%rip),%rdx        # 6054c8 <optarg@@GLIBC_2.2.5>
  4011a9:	be fa 2f 40 00       	mov    $0x402ffa,%esi
  4011ae:	48 8b 3d 1b 43 20 00 	mov    0x20431b(%rip),%rdi        # 6054d0 <stderr@@GLIBC_2.2.5>
  4011b5:	e8 46 fb ff ff       	callq  400d00 <fprintf@plt>
  4011ba:	b8 01 00 00 00       	mov    $0x1,%eax
  4011bf:	e9 d6 00 00 00       	jmpq   40129a <main+0x1ba>
  4011c4:	ba 10 00 00 00       	mov    $0x10,%edx
  4011c9:	be 00 00 00 00       	mov    $0x0,%esi
  4011ce:	48 8b 3d f3 42 20 00 	mov    0x2042f3(%rip),%rdi        # 6054c8 <optarg@@GLIBC_2.2.5>
  4011d5:	e8 e6 fb ff ff       	callq  400dc0 <strtoul@plt>
  4011da:	41 89 c6             	mov    %eax,%r14d
  4011dd:	eb 42                	jmp    401221 <main+0x141>
  4011df:	ba 0a 00 00 00       	mov    $0xa,%edx
  4011e4:	be 00 00 00 00       	mov    $0x0,%esi
  4011e9:	48 8b 3d d8 42 20 00 	mov    0x2042d8(%rip),%rdi        # 6054c8 <optarg@@GLIBC_2.2.5>
  4011f0:	e8 2b fb ff ff       	callq  400d20 <strtol@plt>
  4011f5:	41 89 c5             	mov    %eax,%r13d
  4011f8:	eb 27                	jmp    401221 <main+0x141>
  4011fa:	c7 05 a4 42 20 00 00 	movl   $0x0,0x2042a4(%rip)        # 6054a8 <notify>
  401201:	00 00 00 
  401204:	eb 1b                	jmp    401221 <main+0x141>
  401206:	40 0f be f6          	movsbl %sil,%esi
  40120a:	bf 17 30 40 00       	mov    $0x403017,%edi
  40120f:	b8 00 00 00 00       	mov    $0x0,%eax
  401214:	e8 67 fa ff ff       	callq  400c80 <printf@plt>
  401219:	48 8b 3b             	mov    (%rbx),%rdi
  40121c:	e8 ef fc ff ff       	callq  400f10 <usage>
  401221:	48 89 ea             	mov    %rbp,%rdx
  401224:	48 89 de             	mov    %rbx,%rsi
  401227:	44 89 e7             	mov    %r12d,%edi
  40122a:	e8 81 fb ff ff       	callq  400db0 <getopt@plt>
  40122f:	89 c6                	mov    %eax,%esi
  401231:	3c ff                	cmp    $0xff,%al
  401233:	0f 85 2f ff ff ff    	jne    401168 <main+0x88>
  401239:	be 01 00 00 00       	mov    $0x1,%esi
  40123e:	44 89 ef             	mov    %r13d,%edi
  401241:	e8 4a fd ff ff       	callq  400f90 <initialize_target>
  401246:	83 3d bb 42 20 00 00 	cmpl   $0x0,0x2042bb(%rip)        # 605508 <is_checker>
  40124d:	74 25                	je     401274 <main+0x194>
  40124f:	44 3b 35 aa 42 20 00 	cmp    0x2042aa(%rip),%r14d        # 605500 <authkey>
  401256:	74 1c                	je     401274 <main+0x194>
  401258:	44 89 f6             	mov    %r14d,%esi
  40125b:	bf 50 2f 40 00       	mov    $0x402f50,%edi
  401260:	b8 00 00 00 00       	mov    $0x0,%eax
  401265:	e8 16 fa ff ff       	callq  400c80 <printf@plt>
  40126a:	b8 00 00 00 00       	mov    $0x0,%eax
  40126f:	e8 17 09 00 00       	callq  401b8b <check_fail>
  401274:	8b 35 8a 42 20 00    	mov    0x20428a(%rip),%esi        # 605504 <cookie>
  40127a:	bf 2a 30 40 00       	mov    $0x40302a,%edi
  40127f:	b8 00 00 00 00       	mov    $0x0,%eax
  401284:	e8 f7 f9 ff ff       	callq  400c80 <printf@plt>
  401289:	48 8b 3d 10 42 20 00 	mov    0x204210(%rip),%rdi        # 6054a0 <buf_offset>
  401290:	e8 26 0d 00 00       	callq  401fbb <launch>
  401295:	b8 00 00 00 00       	mov    $0x0,%eax
  40129a:	5b                   	pop    %rbx
  40129b:	5d                   	pop    %rbp
  40129c:	41 5c                	pop    %r12
  40129e:	41 5d                	pop    %r13
  4012a0:	41 5e                	pop    %r14
  4012a2:	c3                   	retq   
  4012a3:	90                   	nop

00000000004012a4 <scramble>:
  4012a4:	b8 00 00 00 00       	mov    $0x0,%eax
  4012a9:	eb 11                	jmp    4012bc <scramble+0x18>
  4012ab:	69 c8 2e 12 00 00    	imul   $0x122e,%eax,%ecx
  4012b1:	01 f9                	add    %edi,%ecx
  4012b3:	89 c2                	mov    %eax,%edx
  4012b5:	89 4c 94 d0          	mov    %ecx,-0x30(%rsp,%rdx,4)
  4012b9:	83 c0 01             	add    $0x1,%eax
  4012bc:	83 f8 09             	cmp    $0x9,%eax
  4012bf:	76 ea                	jbe    4012ab <scramble+0x7>
  4012c1:	8b 44 24 dc          	mov    -0x24(%rsp),%eax
  4012c5:	69 c0 fd 17 00 00    	imul   $0x17fd,%eax,%eax
  4012cb:	89 44 24 dc          	mov    %eax,-0x24(%rsp)
  4012cf:	8b 44 24 e8          	mov    -0x18(%rsp),%eax
  4012d3:	69 c0 57 d3 00 00    	imul   $0xd357,%eax,%eax
  4012d9:	89 44 24 e8          	mov    %eax,-0x18(%rsp)
  4012dd:	8b 44 24 e8          	mov    -0x18(%rsp),%eax
  4012e1:	69 c0 05 a7 00 00    	imul   $0xa705,%eax,%eax
  4012e7:	89 44 24 e8          	mov    %eax,-0x18(%rsp)
  4012eb:	8b 44 24 f4          	mov    -0xc(%rsp),%eax
  4012ef:	69 c0 73 ef 00 00    	imul   $0xef73,%eax,%eax
  4012f5:	89 44 24 f4          	mov    %eax,-0xc(%rsp)
  4012f9:	8b 44 24 e4          	mov    -0x1c(%rsp),%eax
  4012fd:	69 c0 a3 77 00 00    	imul   $0x77a3,%eax,%eax
  401303:	89 44 24 e4          	mov    %eax,-0x1c(%rsp)
  401307:	8b 44 24 e0          	mov    -0x20(%rsp),%eax
  40130b:	69 c0 62 82 00 00    	imul   $0x8262,%eax,%eax
  401311:	89 44 24 e0          	mov    %eax,-0x20(%rsp)
  401315:	8b 44 24 e4          	mov    -0x1c(%rsp),%eax
  401319:	69 c0 ae 7a 00 00    	imul   $0x7aae,%eax,%eax
  40131f:	89 44 24 e4          	mov    %eax,-0x1c(%rsp)
  401323:	8b 44 24 f4          	mov    -0xc(%rsp),%eax
  401327:	69 c0 29 ff 00 00    	imul   $0xff29,%eax,%eax
  40132d:	89 44 24 f4          	mov    %eax,-0xc(%rsp)
  401331:	8b 44 24 f0          	mov    -0x10(%rsp),%eax
  401335:	69 c0 75 db 00 00    	imul   $0xdb75,%eax,%eax
  40133b:	89 44 24 f0          	mov    %eax,-0x10(%rsp)
  40133f:	8b 44 24 d0          	mov    -0x30(%rsp),%eax
  401343:	69 c0 2b 05 00 00    	imul   $0x52b,%eax,%eax
  401349:	89 44 24 d0          	mov    %eax,-0x30(%rsp)
  40134d:	8b 44 24 d0          	mov    -0x30(%rsp),%eax
  401351:	69 c0 54 24 00 00    	imul   $0x2454,%eax,%eax
  401357:	89 44 24 d0          	mov    %eax,-0x30(%rsp)
  40135b:	8b 44 24 d0          	mov    -0x30(%rsp),%eax
  40135f:	69 c0 aa b9 00 00    	imul   $0xb9aa,%eax,%eax
  401365:	89 44 24 d0          	mov    %eax,-0x30(%rsp)
  401369:	8b 44 24 d4          	mov    -0x2c(%rsp),%eax
  40136d:	69 c0 46 9a 00 00    	imul   $0x9a46,%eax,%eax
  401373:	89 44 24 d4          	mov    %eax,-0x2c(%rsp)
  401377:	8b 44 24 e4          	mov    -0x1c(%rsp),%eax
  40137b:	69 c0 95 a5 00 00    	imul   $0xa595,%eax,%eax
  401381:	89 44 24 e4          	mov    %eax,-0x1c(%rsp)
  401385:	8b 44 24 f0          	mov    -0x10(%rsp),%eax
  401389:	69 c0 ee ce 00 00    	imul   $0xceee,%eax,%eax
  40138f:	89 44 24 f0          	mov    %eax,-0x10(%rsp)
  401393:	8b 44 24 ec          	mov    -0x14(%rsp),%eax
  401397:	69 c0 cb bb 00 00    	imul   $0xbbcb,%eax,%eax
  40139d:	89 44 24 ec          	mov    %eax,-0x14(%rsp)
  4013a1:	8b 44 24 f4          	mov    -0xc(%rsp),%eax
  4013a5:	69 c0 fb a7 00 00    	imul   $0xa7fb,%eax,%eax
  4013ab:	89 44 24 f4          	mov    %eax,-0xc(%rsp)
  4013af:	8b 44 24 d8          	mov    -0x28(%rsp),%eax
  4013b3:	69 c0 c1 95 00 00    	imul   $0x95c1,%eax,%eax
  4013b9:	89 44 24 d8          	mov    %eax,-0x28(%rsp)
  4013bd:	8b 44 24 dc          	mov    -0x24(%rsp),%eax
  4013c1:	69 c0 87 eb 00 00    	imul   $0xeb87,%eax,%eax
  4013c7:	89 44 24 dc          	mov    %eax,-0x24(%rsp)
  4013cb:	8b 44 24 ec          	mov    -0x14(%rsp),%eax
  4013cf:	69 c0 3a 23 00 00    	imul   $0x233a,%eax,%eax
  4013d5:	89 44 24 ec          	mov    %eax,-0x14(%rsp)
  4013d9:	8b 44 24 f0          	mov    -0x10(%rsp),%eax
  4013dd:	69 c0 22 d9 00 00    	imul   $0xd922,%eax,%eax
  4013e3:	89 44 24 f0          	mov    %eax,-0x10(%rsp)
  4013e7:	8b 44 24 d8          	mov    -0x28(%rsp),%eax
  4013eb:	69 c0 89 9e 00 00    	imul   $0x9e89,%eax,%eax
  4013f1:	89 44 24 d8          	mov    %eax,-0x28(%rsp)
  4013f5:	8b 44 24 f0          	mov    -0x10(%rsp),%eax
  4013f9:	69 c0 53 82 00 00    	imul   $0x8253,%eax,%eax
  4013ff:	89 44 24 f0          	mov    %eax,-0x10(%rsp)
  401403:	8b 44 24 d0          	mov    -0x30(%rsp),%eax
  401407:	69 c0 72 58 00 00    	imul   $0x5872,%eax,%eax
  40140d:	89 44 24 d0          	mov    %eax,-0x30(%rsp)
  401411:	8b 44 24 d4          	mov    -0x2c(%rsp),%eax
  401415:	69 c0 cd 45 00 00    	imul   $0x45cd,%eax,%eax
  40141b:	89 44 24 d4          	mov    %eax,-0x2c(%rsp)
  40141f:	8b 44 24 e4          	mov    -0x1c(%rsp),%eax
  401423:	69 c0 f2 34 00 00    	imul   $0x34f2,%eax,%eax
  401429:	89 44 24 e4          	mov    %eax,-0x1c(%rsp)
  40142d:	8b 44 24 f4          	mov    -0xc(%rsp),%eax
  401431:	69 c0 d4 67 00 00    	imul   $0x67d4,%eax,%eax
  401437:	89 44 24 f4          	mov    %eax,-0xc(%rsp)
  40143b:	8b 44 24 d0          	mov    -0x30(%rsp),%eax
  40143f:	69 c0 df 9a 00 00    	imul   $0x9adf,%eax,%eax
  401445:	89 44 24 d0          	mov    %eax,-0x30(%rsp)
  401449:	8b 44 24 ec          	mov    -0x14(%rsp),%eax
  40144d:	69 c0 9a e4 00 00    	imul   $0xe49a,%eax,%eax
  401453:	89 44 24 ec          	mov    %eax,-0x14(%rsp)
  401457:	8b 44 24 d0          	mov    -0x30(%rsp),%eax
  40145b:	69 c0 b8 ab 00 00    	imul   $0xabb8,%eax,%eax
  401461:	89 44 24 d0          	mov    %eax,-0x30(%rsp)
  401465:	8b 44 24 e4          	mov    -0x1c(%rsp),%eax
  401469:	69 c0 6b ce 00 00    	imul   $0xce6b,%eax,%eax
  40146f:	89 44 24 e4          	mov    %eax,-0x1c(%rsp)
  401473:	8b 44 24 d0          	mov    -0x30(%rsp),%eax
  401477:	69 c0 73 9a 00 00    	imul   $0x9a73,%eax,%eax
  40147d:	89 44 24 d0          	mov    %eax,-0x30(%rsp)
  401481:	8b 44 24 d8          	mov    -0x28(%rsp),%eax
  401485:	69 c0 a6 f6 00 00    	imul   $0xf6a6,%eax,%eax
  40148b:	89 44 24 d8          	mov    %eax,-0x28(%rsp)
  40148f:	8b 44 24 d8          	mov    -0x28(%rsp),%eax
  401493:	69 c0 67 c5 00 00    	imul   $0xc567,%eax,%eax
  401499:	89 44 24 d8          	mov    %eax,-0x28(%rsp)
  40149d:	8b 44 24 f4          	mov    -0xc(%rsp),%eax
  4014a1:	69 c0 69 b5 00 00    	imul   $0xb569,%eax,%eax
  4014a7:	89 44 24 f4          	mov    %eax,-0xc(%rsp)
  4014ab:	8b 44 24 e4          	mov    -0x1c(%rsp),%eax
  4014af:	69 c0 59 45 00 00    	imul   $0x4559,%eax,%eax
  4014b5:	89 44 24 e4          	mov    %eax,-0x1c(%rsp)
  4014b9:	8b 44 24 d8          	mov    -0x28(%rsp),%eax
  4014bd:	69 c0 3d 8e 00 00    	imul   $0x8e3d,%eax,%eax
  4014c3:	89 44 24 d8          	mov    %eax,-0x28(%rsp)
  4014c7:	8b 44 24 e0          	mov    -0x20(%rsp),%eax
  4014cb:	69 c0 5c e2 00 00    	imul   $0xe25c,%eax,%eax
  4014d1:	89 44 24 e0          	mov    %eax,-0x20(%rsp)
  4014d5:	8b 44 24 d8          	mov    -0x28(%rsp),%eax
  4014d9:	69 c0 95 81 00 00    	imul   $0x8195,%eax,%eax
  4014df:	89 44 24 d8          	mov    %eax,-0x28(%rsp)
  4014e3:	8b 44 24 d8          	mov    -0x28(%rsp),%eax
  4014e7:	69 c0 59 6e 00 00    	imul   $0x6e59,%eax,%eax
  4014ed:	89 44 24 d8          	mov    %eax,-0x28(%rsp)
  4014f1:	8b 44 24 d4          	mov    -0x2c(%rsp),%eax
  4014f5:	69 c0 6b 98 00 00    	imul   $0x986b,%eax,%eax
  4014fb:	89 44 24 d4          	mov    %eax,-0x2c(%rsp)
  4014ff:	8b 44 24 f4          	mov    -0xc(%rsp),%eax
  401503:	69 c0 83 31 00 00    	imul   $0x3183,%eax,%eax
  401509:	89 44 24 f4          	mov    %eax,-0xc(%rsp)
  40150d:	8b 44 24 e8          	mov    -0x18(%rsp),%eax
  401511:	69 c0 e8 91 00 00    	imul   $0x91e8,%eax,%eax
  401517:	89 44 24 e8          	mov    %eax,-0x18(%rsp)
  40151b:	8b 44 24 e0          	mov    -0x20(%rsp),%eax
  40151f:	69 c0 5a 02 00 00    	imul   $0x25a,%eax,%eax
  401525:	89 44 24 e0          	mov    %eax,-0x20(%rsp)
  401529:	8b 44 24 e8          	mov    -0x18(%rsp),%eax
  40152d:	69 c0 d7 0c 00 00    	imul   $0xcd7,%eax,%eax
  401533:	89 44 24 e8          	mov    %eax,-0x18(%rsp)
  401537:	8b 44 24 d8          	mov    -0x28(%rsp),%eax
  40153b:	69 c0 0a 2a 00 00    	imul   $0x2a0a,%eax,%eax
  401541:	89 44 24 d8          	mov    %eax,-0x28(%rsp)
  401545:	8b 44 24 e4          	mov    -0x1c(%rsp),%eax
  401549:	69 c0 95 15 00 00    	imul   $0x1595,%eax,%eax
  40154f:	89 44 24 e4          	mov    %eax,-0x1c(%rsp)
  401553:	8b 44 24 d0          	mov    -0x30(%rsp),%eax
  401557:	69 c0 a9 51 00 00    	imul   $0x51a9,%eax,%eax
  40155d:	89 44 24 d0          	mov    %eax,-0x30(%rsp)
  401561:	8b 44 24 f0          	mov    -0x10(%rsp),%eax
  401565:	69 c0 b2 f4 00 00    	imul   $0xf4b2,%eax,%eax
  40156b:	89 44 24 f0          	mov    %eax,-0x10(%rsp)
  40156f:	8b 44 24 e4          	mov    -0x1c(%rsp),%eax
  401573:	69 c0 6a ee 00 00    	imul   $0xee6a,%eax,%eax
  401579:	89 44 24 e4          	mov    %eax,-0x1c(%rsp)
  40157d:	8b 44 24 dc          	mov    -0x24(%rsp),%eax
  401581:	69 c0 b1 ff 00 00    	imul   $0xffb1,%eax,%eax
  401587:	89 44 24 dc          	mov    %eax,-0x24(%rsp)
  40158b:	8b 44 24 d0          	mov    -0x30(%rsp),%eax
  40158f:	69 c0 a7 38 00 00    	imul   $0x38a7,%eax,%eax
  401595:	89 44 24 d0          	mov    %eax,-0x30(%rsp)
  401599:	8b 44 24 d4          	mov    -0x2c(%rsp),%eax
  40159d:	69 c0 a5 17 00 00    	imul   $0x17a5,%eax,%eax
  4015a3:	89 44 24 d4          	mov    %eax,-0x2c(%rsp)
  4015a7:	8b 44 24 d0          	mov    -0x30(%rsp),%eax
  4015ab:	69 c0 7e 9e 00 00    	imul   $0x9e7e,%eax,%eax
  4015b1:	89 44 24 d0          	mov    %eax,-0x30(%rsp)
  4015b5:	8b 44 24 dc          	mov    -0x24(%rsp),%eax
  4015b9:	69 c0 d1 55 00 00    	imul   $0x55d1,%eax,%eax
  4015bf:	89 44 24 dc          	mov    %eax,-0x24(%rsp)
  4015c3:	8b 44 24 d0          	mov    -0x30(%rsp),%eax
  4015c7:	69 c0 9c 60 00 00    	imul   $0x609c,%eax,%eax
  4015cd:	89 44 24 d0          	mov    %eax,-0x30(%rsp)
  4015d1:	8b 44 24 dc          	mov    -0x24(%rsp),%eax
  4015d5:	69 c0 23 b0 00 00    	imul   $0xb023,%eax,%eax
  4015db:	89 44 24 dc          	mov    %eax,-0x24(%rsp)
  4015df:	8b 44 24 ec          	mov    -0x14(%rsp),%eax
  4015e3:	69 c0 7c ee 00 00    	imul   $0xee7c,%eax,%eax
  4015e9:	89 44 24 ec          	mov    %eax,-0x14(%rsp)
  4015ed:	8b 44 24 d8          	mov    -0x28(%rsp),%eax
  4015f1:	69 c0 82 5e 00 00    	imul   $0x5e82,%eax,%eax
  4015f7:	89 44 24 d8          	mov    %eax,-0x28(%rsp)
  4015fb:	8b 44 24 ec          	mov    -0x14(%rsp),%eax
  4015ff:	69 c0 8e b8 00 00    	imul   $0xb88e,%eax,%eax
  401605:	89 44 24 ec          	mov    %eax,-0x14(%rsp)
  401609:	8b 44 24 d0          	mov    -0x30(%rsp),%eax
  40160d:	69 c0 e8 9e 00 00    	imul   $0x9ee8,%eax,%eax
  401613:	89 44 24 d0          	mov    %eax,-0x30(%rsp)
  401617:	8b 44 24 dc          	mov    -0x24(%rsp),%eax
  40161b:	69 c0 9c 46 00 00    	imul   $0x469c,%eax,%eax
  401621:	89 44 24 dc          	mov    %eax,-0x24(%rsp)
  401625:	8b 44 24 ec          	mov    -0x14(%rsp),%eax
  401629:	69 c0 16 a7 00 00    	imul   $0xa716,%eax,%eax
  40162f:	89 44 24 ec          	mov    %eax,-0x14(%rsp)
  401633:	8b 44 24 e8          	mov    -0x18(%rsp),%eax
  401637:	69 c0 b9 c0 00 00    	imul   $0xc0b9,%eax,%eax
  40163d:	89 44 24 e8          	mov    %eax,-0x18(%rsp)
  401641:	8b 44 24 ec          	mov    -0x14(%rsp),%eax
  401645:	69 c0 55 af 00 00    	imul   $0xaf55,%eax,%eax
  40164b:	89 44 24 ec          	mov    %eax,-0x14(%rsp)
  40164f:	8b 44 24 e8          	mov    -0x18(%rsp),%eax
  401653:	69 c0 e3 45 00 00    	imul   $0x45e3,%eax,%eax
  401659:	89 44 24 e8          	mov    %eax,-0x18(%rsp)
  40165d:	8b 44 24 e8          	mov    -0x18(%rsp),%eax
  401661:	69 c0 e6 e2 00 00    	imul   $0xe2e6,%eax,%eax
  401667:	89 44 24 e8          	mov    %eax,-0x18(%rsp)
  40166b:	8b 44 24 d0          	mov    -0x30(%rsp),%eax
  40166f:	69 c0 f4 3c 00 00    	imul   $0x3cf4,%eax,%eax
  401675:	89 44 24 d0          	mov    %eax,-0x30(%rsp)
  401679:	8b 44 24 d8          	mov    -0x28(%rsp),%eax
  40167d:	69 c0 8d 99 00 00    	imul   $0x998d,%eax,%eax
  401683:	89 44 24 d8          	mov    %eax,-0x28(%rsp)
  401687:	8b 44 24 e0          	mov    -0x20(%rsp),%eax
  40168b:	69 c0 c6 93 00 00    	imul   $0x93c6,%eax,%eax
  401691:	89 44 24 e0          	mov    %eax,-0x20(%rsp)
  401695:	8b 44 24 dc          	mov    -0x24(%rsp),%eax
  401699:	69 c0 4a e8 00 00    	imul   $0xe84a,%eax,%eax
  40169f:	89 44 24 dc          	mov    %eax,-0x24(%rsp)
  4016a3:	8b 44 24 dc          	mov    -0x24(%rsp),%eax
  4016a7:	69 c0 9b dd 00 00    	imul   $0xdd9b,%eax,%eax
  4016ad:	89 44 24 dc          	mov    %eax,-0x24(%rsp)
  4016b1:	8b 44 24 ec          	mov    -0x14(%rsp),%eax
  4016b5:	69 c0 82 86 00 00    	imul   $0x8682,%eax,%eax
  4016bb:	89 44 24 ec          	mov    %eax,-0x14(%rsp)
  4016bf:	8b 44 24 d0          	mov    -0x30(%rsp),%eax
  4016c3:	69 c0 78 da 00 00    	imul   $0xda78,%eax,%eax
  4016c9:	89 44 24 d0          	mov    %eax,-0x30(%rsp)
  4016cd:	8b 44 24 e0          	mov    -0x20(%rsp),%eax
  4016d1:	69 c0 ed bc 00 00    	imul   $0xbced,%eax,%eax
  4016d7:	89 44 24 e0          	mov    %eax,-0x20(%rsp)
  4016db:	8b 44 24 f4          	mov    -0xc(%rsp),%eax
  4016df:	69 c0 5e 50 00 00    	imul   $0x505e,%eax,%eax
  4016e5:	89 44 24 f4          	mov    %eax,-0xc(%rsp)
  4016e9:	8b 44 24 d8          	mov    -0x28(%rsp),%eax
  4016ed:	69 c0 9f 75 00 00    	imul   $0x759f,%eax,%eax
  4016f3:	89 44 24 d8          	mov    %eax,-0x28(%rsp)
  4016f7:	8b 44 24 dc          	mov    -0x24(%rsp),%eax
  4016fb:	69 c0 52 10 00 00    	imul   $0x1052,%eax,%eax
  401701:	89 44 24 dc          	mov    %eax,-0x24(%rsp)
  401705:	8b 44 24 f0          	mov    -0x10(%rsp),%eax
  401709:	69 c0 3f 2f 00 00    	imul   $0x2f3f,%eax,%eax
  40170f:	89 44 24 f0          	mov    %eax,-0x10(%rsp)
  401713:	8b 44 24 e8          	mov    -0x18(%rsp),%eax
  401717:	69 c0 7d b8 00 00    	imul   $0xb87d,%eax,%eax
  40171d:	89 44 24 e8          	mov    %eax,-0x18(%rsp)
  401721:	8b 44 24 e8          	mov    -0x18(%rsp),%eax
  401725:	69 c0 2f 80 00 00    	imul   $0x802f,%eax,%eax
  40172b:	89 44 24 e8          	mov    %eax,-0x18(%rsp)
  40172f:	8b 44 24 d0          	mov    -0x30(%rsp),%eax
  401733:	69 c0 9a 8d 00 00    	imul   $0x8d9a,%eax,%eax
  401739:	89 44 24 d0          	mov    %eax,-0x30(%rsp)
  40173d:	8b 44 24 d0          	mov    -0x30(%rsp),%eax
  401741:	69 c0 eb 7c 00 00    	imul   $0x7ceb,%eax,%eax
  401747:	89 44 24 d0          	mov    %eax,-0x30(%rsp)
  40174b:	8b 44 24 e0          	mov    -0x20(%rsp),%eax
  40174f:	69 c0 a2 5d 00 00    	imul   $0x5da2,%eax,%eax
  401755:	89 44 24 e0          	mov    %eax,-0x20(%rsp)
  401759:	8b 44 24 d0          	mov    -0x30(%rsp),%eax
  40175d:	69 c0 00 a6 00 00    	imul   $0xa600,%eax,%eax
  401763:	89 44 24 d0          	mov    %eax,-0x30(%rsp)
  401767:	8b 44 24 d0          	mov    -0x30(%rsp),%eax
  40176b:	69 c0 d7 05 00 00    	imul   $0x5d7,%eax,%eax
  401771:	89 44 24 d0          	mov    %eax,-0x30(%rsp)
  401775:	8b 44 24 f0          	mov    -0x10(%rsp),%eax
  401779:	69 c0 cb e5 00 00    	imul   $0xe5cb,%eax,%eax
  40177f:	89 44 24 f0          	mov    %eax,-0x10(%rsp)
  401783:	8b 44 24 e0          	mov    -0x20(%rsp),%eax
  401787:	69 c0 b7 26 00 00    	imul   $0x26b7,%eax,%eax
  40178d:	89 44 24 e0          	mov    %eax,-0x20(%rsp)
  401791:	8b 44 24 e8          	mov    -0x18(%rsp),%eax
  401795:	69 c0 89 af 00 00    	imul   $0xaf89,%eax,%eax
  40179b:	89 44 24 e8          	mov    %eax,-0x18(%rsp)
  40179f:	8b 44 24 f0          	mov    -0x10(%rsp),%eax
  4017a3:	69 c0 52 51 00 00    	imul   $0x5152,%eax,%eax
  4017a9:	89 44 24 f0          	mov    %eax,-0x10(%rsp)
  4017ad:	8b 44 24 e8          	mov    -0x18(%rsp),%eax
  4017b1:	69 c0 36 94 00 00    	imul   $0x9436,%eax,%eax
  4017b7:	89 44 24 e8          	mov    %eax,-0x18(%rsp)
  4017bb:	8b 44 24 ec          	mov    -0x14(%rsp),%eax
  4017bf:	69 c0 4b c8 00 00    	imul   $0xc84b,%eax,%eax
  4017c5:	89 44 24 ec          	mov    %eax,-0x14(%rsp)
  4017c9:	8b 44 24 d4          	mov    -0x2c(%rsp),%eax
  4017cd:	69 c0 aa 38 00 00    	imul   $0x38aa,%eax,%eax
  4017d3:	89 44 24 d4          	mov    %eax,-0x2c(%rsp)
  4017d7:	8b 44 24 d4          	mov    -0x2c(%rsp),%eax
  4017db:	69 c0 8a 26 00 00    	imul   $0x268a,%eax,%eax
  4017e1:	89 44 24 d4          	mov    %eax,-0x2c(%rsp)
  4017e5:	8b 44 24 e4          	mov    -0x1c(%rsp),%eax
  4017e9:	69 c0 a9 a9 00 00    	imul   $0xa9a9,%eax,%eax
  4017ef:	89 44 24 e4          	mov    %eax,-0x1c(%rsp)
  4017f3:	8b 44 24 f4          	mov    -0xc(%rsp),%eax
  4017f7:	69 c0 7d 46 00 00    	imul   $0x467d,%eax,%eax
  4017fd:	89 44 24 f4          	mov    %eax,-0xc(%rsp)
  401801:	8b 44 24 dc          	mov    -0x24(%rsp),%eax
  401805:	69 c0 68 dd 00 00    	imul   $0xdd68,%eax,%eax
  40180b:	89 44 24 dc          	mov    %eax,-0x24(%rsp)
  40180f:	8b 44 24 f4          	mov    -0xc(%rsp),%eax
  401813:	69 c0 ef 8c 00 00    	imul   $0x8cef,%eax,%eax
  401819:	89 44 24 f4          	mov    %eax,-0xc(%rsp)
  40181d:	8b 44 24 f4          	mov    -0xc(%rsp),%eax
  401821:	69 c0 a5 9e 00 00    	imul   $0x9ea5,%eax,%eax
  401827:	89 44 24 f4          	mov    %eax,-0xc(%rsp)
  40182b:	ba 00 00 00 00       	mov    $0x0,%edx
  401830:	b8 00 00 00 00       	mov    $0x0,%eax
  401835:	eb 0b                	jmp    401842 <scramble+0x59e>
  401837:	89 d1                	mov    %edx,%ecx
  401839:	8b 4c 8c d0          	mov    -0x30(%rsp,%rcx,4),%ecx
  40183d:	01 c8                	add    %ecx,%eax
  40183f:	83 c2 01             	add    $0x1,%edx
  401842:	83 fa 09             	cmp    $0x9,%edx
  401845:	76 f0                	jbe    401837 <scramble+0x593>
  401847:	f3 c3                	repz retq 
  401849:	0f 1f 00             	nopl   (%rax)

000000000040184c <getbuf>:
  40184c:	48 83 ec 28          	sub    $0x28,%rsp
  401850:	48 89 e7             	mov    %rsp,%rdi
  401853:	e8 62 03 00 00       	callq  401bba <Gets>
  401858:	b8 01 00 00 00       	mov    $0x1,%eax
  40185d:	48 83 c4 28          	add    $0x28,%rsp
  401861:	c3                   	retq   
  401862:	66 90                	xchg   %ax,%ax

0000000000401864 <touch1>:
  401864:	48 83 ec 08          	sub    $0x8,%rsp
  401868:	c7 05 8a 3c 20 00 01 	movl   $0x1,0x203c8a(%rip)        # 6054fc <vlevel>
  40186f:	00 00 00 
  401872:	bf 22 31 40 00       	mov    $0x403122,%edi
  401877:	e8 d4 f3 ff ff       	callq  400c50 <puts@plt>
  40187c:	bf 01 00 00 00       	mov    $0x1,%edi
  401881:	e8 23 05 00 00       	callq  401da9 <validate>
  401886:	bf 00 00 00 00       	mov    $0x0,%edi
  40188b:	e8 60 f5 ff ff       	callq  400df0 <exit@plt>

0000000000401890 <touch2>:
  401890:	48 83 ec 08          	sub    $0x8,%rsp
  401894:	89 fe                	mov    %edi,%esi
  401896:	c7 05 5c 3c 20 00 02 	movl   $0x2,0x203c5c(%rip)        # 6054fc <vlevel>
  40189d:	00 00 00 
  4018a0:	3b 3d 5e 3c 20 00    	cmp    0x203c5e(%rip),%edi        # 605504 <cookie>
  4018a6:	75 1b                	jne    4018c3 <touch2+0x33>
  4018a8:	bf 48 31 40 00       	mov    $0x403148,%edi
  4018ad:	b8 00 00 00 00       	mov    $0x0,%eax
  4018b2:	e8 c9 f3 ff ff       	callq  400c80 <printf@plt>
  4018b7:	bf 02 00 00 00       	mov    $0x2,%edi
  4018bc:	e8 e8 04 00 00       	callq  401da9 <validate>
  4018c1:	eb 19                	jmp    4018dc <touch2+0x4c>
  4018c3:	bf 70 31 40 00       	mov    $0x403170,%edi
  4018c8:	b8 00 00 00 00       	mov    $0x0,%eax
  4018cd:	e8 ae f3 ff ff       	callq  400c80 <printf@plt>
  4018d2:	bf 02 00 00 00       	mov    $0x2,%edi
  4018d7:	e8 7f 05 00 00       	callq  401e5b <fail>
  4018dc:	bf 00 00 00 00       	mov    $0x0,%edi
  4018e1:	e8 0a f5 ff ff       	callq  400df0 <exit@plt>

00000000004018e6 <hexmatch>:
  4018e6:	41 54                	push   %r12
  4018e8:	55                   	push   %rbp
  4018e9:	53                   	push   %rbx
  4018ea:	48 83 ec 70          	sub    $0x70,%rsp
  4018ee:	41 89 fc             	mov    %edi,%r12d
  4018f1:	48 89 f5             	mov    %rsi,%rbp
  4018f4:	e8 57 f4 ff ff       	callq  400d50 <random@plt>
  4018f9:	48 89 c1             	mov    %rax,%rcx
  4018fc:	48 ba 0b d7 a3 70 3d 	mov    $0xa3d70a3d70a3d70b,%rdx
  401903:	0a d7 a3 
  401906:	48 f7 ea             	imul   %rdx
  401909:	48 8d 04 0a          	lea    (%rdx,%rcx,1),%rax
  40190d:	48 c1 f8 06          	sar    $0x6,%rax
  401911:	48 89 ce             	mov    %rcx,%rsi
  401914:	48 c1 fe 3f          	sar    $0x3f,%rsi
  401918:	48 29 f0             	sub    %rsi,%rax
  40191b:	48 8d 04 80          	lea    (%rax,%rax,4),%rax
  40191f:	48 8d 04 80          	lea    (%rax,%rax,4),%rax
  401923:	48 c1 e0 02          	shl    $0x2,%rax
  401927:	48 29 c1             	sub    %rax,%rcx
  40192a:	48 8d 1c 0c          	lea    (%rsp,%rcx,1),%rbx
  40192e:	44 89 e2             	mov    %r12d,%edx
  401931:	be 3f 31 40 00       	mov    $0x40313f,%esi
  401936:	48 89 df             	mov    %rbx,%rdi
  401939:	b8 00 00 00 00       	mov    $0x0,%eax
  40193e:	e8 9d f4 ff ff       	callq  400de0 <sprintf@plt>
  401943:	ba 09 00 00 00       	mov    $0x9,%edx
  401948:	48 89 de             	mov    %rbx,%rsi
  40194b:	48 89 ef             	mov    %rbp,%rdi
  40194e:	e8 dd f2 ff ff       	callq  400c30 <strncmp@plt>
  401953:	85 c0                	test   %eax,%eax
  401955:	0f 94 c0             	sete   %al
  401958:	0f b6 c0             	movzbl %al,%eax
  40195b:	48 83 c4 70          	add    $0x70,%rsp
  40195f:	5b                   	pop    %rbx
  401960:	5d                   	pop    %rbp
  401961:	41 5c                	pop    %r12
  401963:	c3                   	retq   

0000000000401964 <touch3>:
  401964:	53                   	push   %rbx
  401965:	48 89 fb             	mov    %rdi,%rbx
  401968:	c7 05 8a 3b 20 00 03 	movl   $0x3,0x203b8a(%rip)        # 6054fc <vlevel>
  40196f:	00 00 00 
  401972:	48 89 fe             	mov    %rdi,%rsi
  401975:	8b 3d 89 3b 20 00    	mov    0x203b89(%rip),%edi        # 605504 <cookie>
  40197b:	e8 66 ff ff ff       	callq  4018e6 <hexmatch>
  401980:	85 c0                	test   %eax,%eax
  401982:	74 1e                	je     4019a2 <touch3+0x3e>
  401984:	48 89 de             	mov    %rbx,%rsi
  401987:	bf 98 31 40 00       	mov    $0x403198,%edi
  40198c:	b8 00 00 00 00       	mov    $0x0,%eax
  401991:	e8 ea f2 ff ff       	callq  400c80 <printf@plt>
  401996:	bf 03 00 00 00       	mov    $0x3,%edi
  40199b:	e8 09 04 00 00       	callq  401da9 <validate>
  4019a0:	eb 1c                	jmp    4019be <touch3+0x5a>
  4019a2:	48 89 de             	mov    %rbx,%rsi
  4019a5:	bf c0 31 40 00       	mov    $0x4031c0,%edi
  4019aa:	b8 00 00 00 00       	mov    $0x0,%eax
  4019af:	e8 cc f2 ff ff       	callq  400c80 <printf@plt>
  4019b4:	bf 03 00 00 00       	mov    $0x3,%edi
  4019b9:	e8 9d 04 00 00       	callq  401e5b <fail>
  4019be:	bf 00 00 00 00       	mov    $0x0,%edi
  4019c3:	e8 28 f4 ff ff       	callq  400df0 <exit@plt>

00000000004019c8 <test>:
  4019c8:	48 83 ec 08          	sub    $0x8,%rsp
  4019cc:	b8 00 00 00 00       	mov    $0x0,%eax
  4019d1:	e8 76 fe ff ff       	callq  40184c <getbuf>
  4019d6:	89 c6                	mov    %eax,%esi
  4019d8:	bf e8 31 40 00       	mov    $0x4031e8,%edi
  4019dd:	b8 00 00 00 00       	mov    $0x0,%eax
  4019e2:	e8 99 f2 ff ff       	callq  400c80 <printf@plt>
  4019e7:	48 83 c4 08          	add    $0x8,%rsp
  4019eb:	c3                   	retq   

00000000004019ec <start_farm>:
  4019ec:	b8 01 00 00 00       	mov    $0x1,%eax
  4019f1:	c3                   	retq   

00000000004019f2 <setval_202>:
  4019f2:	c7 07 48 89 c7 c3    	movl   $0xc3c78948,(%rdi)
  4019f8:	c3                   	retq   

00000000004019f9 <addval_145>:
  4019f9:	8d 87 d1 58 c1 50    	lea    0x50c158d1(%rdi),%eax
  4019ff:	c3                   	retq   

0000000000401a00 <setval_334>:
  401a00:	c7 07 15 24 58 90    	movl   $0x90582415,(%rdi)
  401a06:	c3                   	retq   

0000000000401a07 <setval_114>:
  401a07:	c7 07 48 89 c7 94    	movl   $0x94c78948,(%rdi)
  401a0d:	c3                   	retq   

0000000000401a0e <setval_268>:
  401a0e:	c7 07 04 f0 58 94    	movl   $0x9458f004,(%rdi)
  401a14:	c3                   	retq   

0000000000401a15 <addval_344>:
  401a15:	8d 87 68 89 c7 c3    	lea    -0x3c387698(%rdi),%eax
  401a1b:	c3                   	retq   

0000000000401a1c <addval_396>:
  401a1c:	8d 87 bb 48 89 c7    	lea    -0x3876b745(%rdi),%eax
  401a22:	c3                   	retq   

0000000000401a23 <getval_310>:
  401a23:	b8 a3 a9 ca 58       	mov    $0x58caa9a3,%eax
  401a28:	c3                   	retq   

0000000000401a29 <mid_farm>:
  401a29:	b8 01 00 00 00       	mov    $0x1,%eax
  401a2e:	c3                   	retq   

0000000000401a2f <add_xy>:
  401a2f:	48 8d 04 37          	lea    (%rdi,%rsi,1),%rax
  401a33:	c3                   	retq   

0000000000401a34 <setval_191>:
  401a34:	c7 07 89 c1 60 d2    	movl   $0xd260c189,(%rdi)
  401a3a:	c3                   	retq   

0000000000401a3b <getval_291>:
  401a3b:	b8 89 d6 20 c0       	mov    $0xc020d689,%eax
  401a40:	c3                   	retq   

0000000000401a41 <setval_329>:
  401a41:	c7 07 89 ca 20 db    	movl   $0xdb20ca89,(%rdi)
  401a47:	c3                   	retq   

0000000000401a48 <getval_178>:
  401a48:	b8 99 c1 90 90       	mov    $0x9090c199,%eax
  401a4d:	c3                   	retq   

0000000000401a4e <setval_230>:
  401a4e:	c7 07 68 89 e0 c3    	movl   $0xc3e08968,(%rdi)
  401a54:	c3                   	retq   

0000000000401a55 <addval_207>:
  401a55:	8d 87 89 ca 94 90    	lea    -0x6f6b3577(%rdi),%eax
  401a5b:	c3                   	retq   

0000000000401a5c <setval_469>:
  401a5c:	c7 07 89 c1 c7 b3    	movl   $0xb3c7c189,(%rdi)
  401a62:	c3                   	retq   

0000000000401a63 <setval_212>:
  401a63:	c7 07 c8 89 e0 c3    	movl   $0xc3e089c8,(%rdi)
  401a69:	c3                   	retq   

0000000000401a6a <getval_271>:
  401a6a:	b8 b5 89 d6 94       	mov    $0x94d689b5,%eax
  401a6f:	c3                   	retq   

0000000000401a70 <getval_465>:
  401a70:	b8 89 c1 18 c9       	mov    $0xc918c189,%eax
  401a75:	c3                   	retq   

0000000000401a76 <setval_287>:
  401a76:	c7 07 88 ca 84 db    	movl   $0xdb84ca88,(%rdi)
  401a7c:	c3                   	retq   

0000000000401a7d <addval_169>:
  401a7d:	8d 87 48 89 e0 90    	lea    -0x6f1f76b8(%rdi),%eax
  401a83:	c3                   	retq   

0000000000401a84 <setval_177>:
  401a84:	c7 07 89 d6 00 c0    	movl   $0xc000d689,(%rdi)
  401a8a:	c3                   	retq   

0000000000401a8b <getval_272>:
  401a8b:	b8 81 ca 38 db       	mov    $0xdb38ca81,%eax
  401a90:	c3                   	retq   

0000000000401a91 <setval_355>:
  401a91:	c7 07 a9 d6 38 c0    	movl   $0xc038d6a9,(%rdi)
  401a97:	c3                   	retq   

0000000000401a98 <setval_448>:
  401a98:	c7 07 89 ca c7 24    	movl   $0x24c7ca89,(%rdi)
  401a9e:	c3                   	retq   

0000000000401a9f <addval_120>:
  401a9f:	8d 87 ca 4c 89 e0    	lea    -0x1f76b336(%rdi),%eax
  401aa5:	c3                   	retq   

0000000000401aa6 <addval_139>:
  401aa6:	8d 87 89 ca 08 db    	lea    -0x24f73577(%rdi),%eax
  401aac:	c3                   	retq   

0000000000401aad <getval_199>:
  401aad:	b8 89 c1 c2 4e       	mov    $0x4ec2c189,%eax
  401ab2:	c3                   	retq   

0000000000401ab3 <setval_153>:
  401ab3:	c7 07 81 d6 84 c0    	movl   $0xc084d681,(%rdi)
  401ab9:	c3                   	retq   

0000000000401aba <addval_489>:
  401aba:	8d 87 4a 89 e0 90    	lea    -0x6f1f76b6(%rdi),%eax
  401ac0:	c3                   	retq   

0000000000401ac1 <setval_320>:
  401ac1:	c7 07 89 c1 c4 c9    	movl   $0xc9c4c189,(%rdi)
  401ac7:	c3                   	retq   

0000000000401ac8 <setval_453>:
  401ac8:	c7 07 89 d6 08 d2    	movl   $0xd208d689,(%rdi)
  401ace:	c3                   	retq   

0000000000401acf <getval_393>:
  401acf:	b8 88 ca 84 c0       	mov    $0xc084ca88,%eax
  401ad4:	c3                   	retq   

0000000000401ad5 <getval_411>:
  401ad5:	b8 48 09 e0 c3       	mov    $0xc3e00948,%eax
  401ada:	c3                   	retq   

0000000000401adb <getval_301>:
  401adb:	b8 ff 00 99 d6       	mov    $0xd69900ff,%eax
  401ae0:	c3                   	retq   

0000000000401ae1 <setval_137>:
  401ae1:	c7 07 89 c1 38 d2    	movl   $0xd238c189,(%rdi)
  401ae7:	c3                   	retq   

0000000000401ae8 <setval_203>:
  401ae8:	c7 07 89 c1 08 db    	movl   $0xdb08c189,(%rdi)
  401aee:	c3                   	retq   

0000000000401aef <addval_307>:
  401aef:	8d 87 48 89 e0 90    	lea    -0x6f1f76b8(%rdi),%eax
  401af5:	c3                   	retq   

0000000000401af6 <setval_468>:
  401af6:	c7 07 c9 d6 20 c0    	movl   $0xc020d6c9,(%rdi)
  401afc:	c3                   	retq   

0000000000401afd <setval_295>:
  401afd:	c7 07 81 ca 90 90    	movl   $0x9090ca81,(%rdi)
  401b03:	c3                   	retq   

0000000000401b04 <addval_251>:
  401b04:	8d 87 48 c9 e0 c3    	lea    -0x3c1f36b8(%rdi),%eax
  401b0a:	c3                   	retq   

0000000000401b0b <end_farm>:
  401b0b:	b8 01 00 00 00       	mov    $0x1,%eax
  401b10:	c3                   	retq   
  401b11:	66 2e 0f 1f 84 00 00 	nopw   %cs:0x0(%rax,%rax,1)
  401b18:	00 00 00 
  401b1b:	0f 1f 44 00 00       	nopl   0x0(%rax,%rax,1)

0000000000401b20 <save_char>:
  401b20:	8b 05 fe 45 20 00    	mov    0x2045fe(%rip),%eax        # 606124 <gets_cnt>
  401b26:	3d ff 03 00 00       	cmp    $0x3ff,%eax
  401b2b:	7f 49                	jg     401b76 <save_char+0x56>
  401b2d:	8d 14 40             	lea    (%rax,%rax,2),%edx
  401b30:	89 f9                	mov    %edi,%ecx
  401b32:	c0 e9 04             	shr    $0x4,%cl
  401b35:	83 e1 0f             	and    $0xf,%ecx
  401b38:	0f b6 b1 10 35 40 00 	movzbl 0x403510(%rcx),%esi
  401b3f:	48 63 ca             	movslq %edx,%rcx
  401b42:	40 88 b1 20 55 60 00 	mov    %sil,0x605520(%rcx)
  401b49:	8d 4a 01             	lea    0x1(%rdx),%ecx
  401b4c:	83 e7 0f             	and    $0xf,%edi
  401b4f:	0f b6 b7 10 35 40 00 	movzbl 0x403510(%rdi),%esi
  401b56:	48 63 c9             	movslq %ecx,%rcx
  401b59:	40 88 b1 20 55 60 00 	mov    %sil,0x605520(%rcx)
  401b60:	83 c2 02             	add    $0x2,%edx
  401b63:	48 63 d2             	movslq %edx,%rdx
  401b66:	c6 82 20 55 60 00 20 	movb   $0x20,0x605520(%rdx)
  401b6d:	83 c0 01             	add    $0x1,%eax
  401b70:	89 05 ae 45 20 00    	mov    %eax,0x2045ae(%rip)        # 606124 <gets_cnt>
  401b76:	f3 c3                	repz retq 

0000000000401b78 <save_term>:
  401b78:	8b 05 a6 45 20 00    	mov    0x2045a6(%rip),%eax        # 606124 <gets_cnt>
  401b7e:	8d 04 40             	lea    (%rax,%rax,2),%eax
  401b81:	48 98                	cltq   
  401b83:	c6 80 20 55 60 00 00 	movb   $0x0,0x605520(%rax)
  401b8a:	c3                   	retq   

0000000000401b8b <check_fail>:
  401b8b:	48 83 ec 08          	sub    $0x8,%rsp
  401b8f:	0f be 35 92 45 20 00 	movsbl 0x204592(%rip),%esi        # 606128 <target_prefix>
  401b96:	b9 20 55 60 00       	mov    $0x605520,%ecx
  401b9b:	8b 15 57 39 20 00    	mov    0x203957(%rip),%edx        # 6054f8 <check_level>
  401ba1:	bf 0b 32 40 00       	mov    $0x40320b,%edi
  401ba6:	b8 00 00 00 00       	mov    $0x0,%eax
  401bab:	e8 d0 f0 ff ff       	callq  400c80 <printf@plt>
  401bb0:	bf 01 00 00 00       	mov    $0x1,%edi
  401bb5:	e8 36 f2 ff ff       	callq  400df0 <exit@plt>

0000000000401bba <Gets>:
  401bba:	41 54                	push   %r12
  401bbc:	55                   	push   %rbp
  401bbd:	53                   	push   %rbx
  401bbe:	49 89 fc             	mov    %rdi,%r12
  401bc1:	c7 05 59 45 20 00 00 	movl   $0x0,0x204559(%rip)        # 606124 <gets_cnt>
  401bc8:	00 00 00 
  401bcb:	48 89 fb             	mov    %rdi,%rbx
  401bce:	eb 11                	jmp    401be1 <Gets+0x27>
  401bd0:	48 8d 6b 01          	lea    0x1(%rbx),%rbp
  401bd4:	88 03                	mov    %al,(%rbx)
  401bd6:	0f b6 f8             	movzbl %al,%edi
  401bd9:	e8 42 ff ff ff       	callq  401b20 <save_char>
  401bde:	48 89 eb             	mov    %rbp,%rbx
  401be1:	48 8b 3d 08 39 20 00 	mov    0x203908(%rip),%rdi        # 6054f0 <infile>
  401be8:	e8 73 f1 ff ff       	callq  400d60 <_IO_getc@plt>
  401bed:	83 f8 ff             	cmp    $0xffffffffffffffff,%eax
  401bf0:	74 05                	je     401bf7 <Gets+0x3d>
  401bf2:	83 f8 0a             	cmp    $0xa,%eax
  401bf5:	75 d9                	jne    401bd0 <Gets+0x16>
  401bf7:	c6 03 00             	movb   $0x0,(%rbx)
  401bfa:	b8 00 00 00 00       	mov    $0x0,%eax
  401bff:	e8 74 ff ff ff       	callq  401b78 <save_term>
  401c04:	4c 89 e0             	mov    %r12,%rax
  401c07:	5b                   	pop    %rbx
  401c08:	5d                   	pop    %rbp
  401c09:	41 5c                	pop    %r12
  401c0b:	c3                   	retq   

0000000000401c0c <notify_server>:
  401c0c:	83 3d f5 38 20 00 00 	cmpl   $0x0,0x2038f5(%rip)        # 605508 <is_checker>
  401c13:	0f 85 8e 01 00 00    	jne    401da7 <notify_server+0x19b>
  401c19:	53                   	push   %rbx
  401c1a:	48 81 ec 10 40 00 00 	sub    $0x4010,%rsp
  401c21:	89 fb                	mov    %edi,%ebx
  401c23:	8b 05 fb 44 20 00    	mov    0x2044fb(%rip),%eax        # 606124 <gets_cnt>
  401c29:	83 c0 64             	add    $0x64,%eax
  401c2c:	3d 00 20 00 00       	cmp    $0x2000,%eax
  401c31:	7e 19                	jle    401c4c <notify_server+0x40>
  401c33:	bf 40 33 40 00       	mov    $0x403340,%edi
  401c38:	b8 00 00 00 00       	mov    $0x0,%eax
  401c3d:	e8 3e f0 ff ff       	callq  400c80 <printf@plt>
  401c42:	bf 01 00 00 00       	mov    $0x1,%edi
  401c47:	e8 a4 f1 ff ff       	callq  400df0 <exit@plt>
  401c4c:	44 0f be 0d d4 44 20 	movsbl 0x2044d4(%rip),%r9d        # 606128 <target_prefix>
  401c53:	00 
  401c54:	83 3d 4d 38 20 00 00 	cmpl   $0x0,0x20384d(%rip)        # 6054a8 <notify>
  401c5b:	74 09                	je     401c66 <notify_server+0x5a>
  401c5d:	44 8b 05 9c 38 20 00 	mov    0x20389c(%rip),%r8d        # 605500 <authkey>
  401c64:	eb 06                	jmp    401c6c <notify_server+0x60>
  401c66:	41 b8 ff ff ff ff    	mov    $0xffffffff,%r8d
  401c6c:	85 db                	test   %ebx,%ebx
  401c6e:	74 07                	je     401c77 <notify_server+0x6b>
  401c70:	b9 21 32 40 00       	mov    $0x403221,%ecx
  401c75:	eb 05                	jmp    401c7c <notify_server+0x70>
  401c77:	b9 26 32 40 00       	mov    $0x403226,%ecx
  401c7c:	48 c7 44 24 08 20 55 	movq   $0x605520,0x8(%rsp)
  401c83:	60 00 
  401c85:	89 34 24             	mov    %esi,(%rsp)
  401c88:	8b 15 da 34 20 00    	mov    0x2034da(%rip),%edx        # 605168 <target_id>
  401c8e:	be 2b 32 40 00       	mov    $0x40322b,%esi
  401c93:	48 8d bc 24 10 20 00 	lea    0x2010(%rsp),%rdi
  401c9a:	00 
  401c9b:	b8 00 00 00 00       	mov    $0x0,%eax
  401ca0:	e8 3b f1 ff ff       	callq  400de0 <sprintf@plt>
  401ca5:	83 3d fc 37 20 00 00 	cmpl   $0x0,0x2037fc(%rip)        # 6054a8 <notify>
  401cac:	74 78                	je     401d26 <notify_server+0x11a>
  401cae:	85 db                	test   %ebx,%ebx
  401cb0:	74 68                	je     401d1a <notify_server+0x10e>
  401cb2:	4c 8d 4c 24 10       	lea    0x10(%rsp),%r9
  401cb7:	41 b8 00 00 00 00    	mov    $0x0,%r8d
  401cbd:	48 8d 8c 24 10 20 00 	lea    0x2010(%rsp),%rcx
  401cc4:	00 
  401cc5:	48 8b 15 a4 34 20 00 	mov    0x2034a4(%rip),%rdx        # 605170 <lab>
  401ccc:	48 8b 35 a5 34 20 00 	mov    0x2034a5(%rip),%rsi        # 605178 <course>
  401cd3:	48 8b 3d 86 34 20 00 	mov    0x203486(%rip),%rdi        # 605160 <user_id>
  401cda:	e8 94 0f 00 00       	callq  402c73 <driver_post>
  401cdf:	85 c0                	test   %eax,%eax
  401ce1:	79 1e                	jns    401d01 <notify_server+0xf5>
  401ce3:	48 8d 74 24 10       	lea    0x10(%rsp),%rsi
  401ce8:	bf 47 32 40 00       	mov    $0x403247,%edi
  401ced:	b8 00 00 00 00       	mov    $0x0,%eax
  401cf2:	e8 89 ef ff ff       	callq  400c80 <printf@plt>
  401cf7:	bf 01 00 00 00       	mov    $0x1,%edi
  401cfc:	e8 ef f0 ff ff       	callq  400df0 <exit@plt>
  401d01:	bf 70 33 40 00       	mov    $0x403370,%edi
  401d06:	e8 45 ef ff ff       	callq  400c50 <puts@plt>
  401d0b:	bf 53 32 40 00       	mov    $0x403253,%edi
  401d10:	e8 3b ef ff ff       	callq  400c50 <puts@plt>
  401d15:	e9 85 00 00 00       	jmpq   401d9f <notify_server+0x193>
  401d1a:	bf 5d 32 40 00       	mov    $0x40325d,%edi
  401d1f:	e8 2c ef ff ff       	callq  400c50 <puts@plt>
  401d24:	eb 79                	jmp    401d9f <notify_server+0x193>
  401d26:	85 db                	test   %ebx,%ebx
  401d28:	74 08                	je     401d32 <notify_server+0x126>
  401d2a:	be 21 32 40 00       	mov    $0x403221,%esi
  401d2f:	90                   	nop
  401d30:	eb 05                	jmp    401d37 <notify_server+0x12b>
  401d32:	be 26 32 40 00       	mov    $0x403226,%esi
  401d37:	bf a8 33 40 00       	mov    $0x4033a8,%edi
  401d3c:	b8 00 00 00 00       	mov    $0x0,%eax
  401d41:	e8 3a ef ff ff       	callq  400c80 <printf@plt>
  401d46:	48 8b 35 13 34 20 00 	mov    0x203413(%rip),%rsi        # 605160 <user_id>
  401d4d:	bf 64 32 40 00       	mov    $0x403264,%edi
  401d52:	b8 00 00 00 00       	mov    $0x0,%eax
  401d57:	e8 24 ef ff ff       	callq  400c80 <printf@plt>
  401d5c:	48 8b 35 15 34 20 00 	mov    0x203415(%rip),%rsi        # 605178 <course>
  401d63:	bf 71 32 40 00       	mov    $0x403271,%edi
  401d68:	b8 00 00 00 00       	mov    $0x0,%eax
  401d6d:	e8 0e ef ff ff       	callq  400c80 <printf@plt>
  401d72:	48 8b 35 f7 33 20 00 	mov    0x2033f7(%rip),%rsi        # 605170 <lab>
  401d79:	bf 7d 32 40 00       	mov    $0x40327d,%edi
  401d7e:	b8 00 00 00 00       	mov    $0x0,%eax
  401d83:	e8 f8 ee ff ff       	callq  400c80 <printf@plt>
  401d88:	48 8d b4 24 10 20 00 	lea    0x2010(%rsp),%rsi
  401d8f:	00 
  401d90:	bf 86 32 40 00       	mov    $0x403286,%edi
  401d95:	b8 00 00 00 00       	mov    $0x0,%eax
  401d9a:	e8 e1 ee ff ff       	callq  400c80 <printf@plt>
  401d9f:	48 81 c4 10 40 00 00 	add    $0x4010,%rsp
  401da6:	5b                   	pop    %rbx
  401da7:	f3 c3                	repz retq 

0000000000401da9 <validate>:
  401da9:	53                   	push   %rbx
  401daa:	89 fb                	mov    %edi,%ebx
  401dac:	83 3d 55 37 20 00 00 	cmpl   $0x0,0x203755(%rip)        # 605508 <is_checker>
  401db3:	74 60                	je     401e15 <validate+0x6c>
  401db5:	39 3d 41 37 20 00    	cmp    %edi,0x203741(%rip)        # 6054fc <vlevel>
  401dbb:	74 14                	je     401dd1 <validate+0x28>
  401dbd:	bf 92 32 40 00       	mov    $0x403292,%edi
  401dc2:	e8 89 ee ff ff       	callq  400c50 <puts@plt>
  401dc7:	b8 00 00 00 00       	mov    $0x0,%eax
  401dcc:	e8 ba fd ff ff       	callq  401b8b <check_fail>
  401dd1:	8b 35 21 37 20 00    	mov    0x203721(%rip),%esi        # 6054f8 <check_level>
  401dd7:	39 fe                	cmp    %edi,%esi
  401dd9:	74 1b                	je     401df6 <validate+0x4d>
  401ddb:	89 fa                	mov    %edi,%edx
  401ddd:	bf d0 33 40 00       	mov    $0x4033d0,%edi
  401de2:	b8 00 00 00 00       	mov    $0x0,%eax
  401de7:	e8 94 ee ff ff       	callq  400c80 <printf@plt>
  401dec:	b8 00 00 00 00       	mov    $0x0,%eax
  401df1:	e8 95 fd ff ff       	callq  401b8b <check_fail>
  401df6:	0f be 35 2b 43 20 00 	movsbl 0x20432b(%rip),%esi        # 606128 <target_prefix>
  401dfd:	b9 20 55 60 00       	mov    $0x605520,%ecx
  401e02:	89 fa                	mov    %edi,%edx
  401e04:	bf b0 32 40 00       	mov    $0x4032b0,%edi
  401e09:	b8 00 00 00 00       	mov    $0x0,%eax
  401e0e:	e8 6d ee ff ff       	callq  400c80 <printf@plt>
  401e13:	eb 44                	jmp    401e59 <validate+0xb0>
  401e15:	39 3d e1 36 20 00    	cmp    %edi,0x2036e1(%rip)        # 6054fc <vlevel>
  401e1b:	74 18                	je     401e35 <validate+0x8c>
  401e1d:	bf 92 32 40 00       	mov    $0x403292,%edi
  401e22:	e8 29 ee ff ff       	callq  400c50 <puts@plt>
  401e27:	89 de                	mov    %ebx,%esi
  401e29:	bf 00 00 00 00       	mov    $0x0,%edi
  401e2e:	e8 d9 fd ff ff       	callq  401c0c <notify_server>
  401e33:	eb 24                	jmp    401e59 <validate+0xb0>
  401e35:	0f be 15 ec 42 20 00 	movsbl 0x2042ec(%rip),%edx        # 606128 <target_prefix>
  401e3c:	89 fe                	mov    %edi,%esi
  401e3e:	bf f8 33 40 00       	mov    $0x4033f8,%edi
  401e43:	b8 00 00 00 00       	mov    $0x0,%eax
  401e48:	e8 33 ee ff ff       	callq  400c80 <printf@plt>
  401e4d:	89 de                	mov    %ebx,%esi
  401e4f:	bf 01 00 00 00       	mov    $0x1,%edi
  401e54:	e8 b3 fd ff ff       	callq  401c0c <notify_server>
  401e59:	5b                   	pop    %rbx
  401e5a:	c3                   	retq   

0000000000401e5b <fail>:
  401e5b:	48 83 ec 08          	sub    $0x8,%rsp
  401e5f:	83 3d a2 36 20 00 00 	cmpl   $0x0,0x2036a2(%rip)        # 605508 <is_checker>
  401e66:	74 0a                	je     401e72 <fail+0x17>
  401e68:	b8 00 00 00 00       	mov    $0x0,%eax
  401e6d:	e8 19 fd ff ff       	callq  401b8b <check_fail>
  401e72:	89 fe                	mov    %edi,%esi
  401e74:	bf 00 00 00 00       	mov    $0x0,%edi
  401e79:	e8 8e fd ff ff       	callq  401c0c <notify_server>
  401e7e:	48 83 c4 08          	add    $0x8,%rsp
  401e82:	c3                   	retq   

0000000000401e83 <bushandler>:
  401e83:	48 83 ec 08          	sub    $0x8,%rsp
  401e87:	83 3d 7a 36 20 00 00 	cmpl   $0x0,0x20367a(%rip)        # 605508 <is_checker>
  401e8e:	74 14                	je     401ea4 <bushandler+0x21>
  401e90:	bf c5 32 40 00       	mov    $0x4032c5,%edi
  401e95:	e8 b6 ed ff ff       	callq  400c50 <puts@plt>
  401e9a:	b8 00 00 00 00       	mov    $0x0,%eax
  401e9f:	e8 e7 fc ff ff       	callq  401b8b <check_fail>
  401ea4:	bf 30 34 40 00       	mov    $0x403430,%edi
  401ea9:	e8 a2 ed ff ff       	callq  400c50 <puts@plt>
  401eae:	bf cf 32 40 00       	mov    $0x4032cf,%edi
  401eb3:	e8 98 ed ff ff       	callq  400c50 <puts@plt>
  401eb8:	be 00 00 00 00       	mov    $0x0,%esi
  401ebd:	bf 00 00 00 00       	mov    $0x0,%edi
  401ec2:	e8 45 fd ff ff       	callq  401c0c <notify_server>
  401ec7:	bf 01 00 00 00       	mov    $0x1,%edi
  401ecc:	e8 1f ef ff ff       	callq  400df0 <exit@plt>

0000000000401ed1 <seghandler>:
  401ed1:	48 83 ec 08          	sub    $0x8,%rsp
  401ed5:	83 3d 2c 36 20 00 00 	cmpl   $0x0,0x20362c(%rip)        # 605508 <is_checker>
  401edc:	74 14                	je     401ef2 <seghandler+0x21>
  401ede:	bf e5 32 40 00       	mov    $0x4032e5,%edi
  401ee3:	e8 68 ed ff ff       	callq  400c50 <puts@plt>
  401ee8:	b8 00 00 00 00       	mov    $0x0,%eax
  401eed:	e8 99 fc ff ff       	callq  401b8b <check_fail>
  401ef2:	bf 50 34 40 00       	mov    $0x403450,%edi
  401ef7:	e8 54 ed ff ff       	callq  400c50 <puts@plt>
  401efc:	bf cf 32 40 00       	mov    $0x4032cf,%edi
  401f01:	e8 4a ed ff ff       	callq  400c50 <puts@plt>
  401f06:	be 00 00 00 00       	mov    $0x0,%esi
  401f0b:	bf 00 00 00 00       	mov    $0x0,%edi
  401f10:	e8 f7 fc ff ff       	callq  401c0c <notify_server>
  401f15:	bf 01 00 00 00       	mov    $0x1,%edi
  401f1a:	e8 d1 ee ff ff       	callq  400df0 <exit@plt>

0000000000401f1f <illegalhandler>:
  401f1f:	48 83 ec 08          	sub    $0x8,%rsp
  401f23:	83 3d de 35 20 00 00 	cmpl   $0x0,0x2035de(%rip)        # 605508 <is_checker>
  401f2a:	74 14                	je     401f40 <illegalhandler+0x21>
  401f2c:	bf f8 32 40 00       	mov    $0x4032f8,%edi
  401f31:	e8 1a ed ff ff       	callq  400c50 <puts@plt>
  401f36:	b8 00 00 00 00       	mov    $0x0,%eax
  401f3b:	e8 4b fc ff ff       	callq  401b8b <check_fail>
  401f40:	bf 78 34 40 00       	mov    $0x403478,%edi
  401f45:	e8 06 ed ff ff       	callq  400c50 <puts@plt>
  401f4a:	bf cf 32 40 00       	mov    $0x4032cf,%edi
  401f4f:	e8 fc ec ff ff       	callq  400c50 <puts@plt>
  401f54:	be 00 00 00 00       	mov    $0x0,%esi
  401f59:	bf 00 00 00 00       	mov    $0x0,%edi
  401f5e:	e8 a9 fc ff ff       	callq  401c0c <notify_server>
  401f63:	bf 01 00 00 00       	mov    $0x1,%edi
  401f68:	e8 83 ee ff ff       	callq  400df0 <exit@plt>

0000000000401f6d <sigalrmhandler>:
  401f6d:	48 83 ec 08          	sub    $0x8,%rsp
  401f71:	83 3d 90 35 20 00 00 	cmpl   $0x0,0x203590(%rip)        # 605508 <is_checker>
  401f78:	74 14                	je     401f8e <sigalrmhandler+0x21>
  401f7a:	bf 0c 33 40 00       	mov    $0x40330c,%edi
  401f7f:	e8 cc ec ff ff       	callq  400c50 <puts@plt>
  401f84:	b8 00 00 00 00       	mov    $0x0,%eax
  401f89:	e8 fd fb ff ff       	callq  401b8b <check_fail>
  401f8e:	be 05 00 00 00       	mov    $0x5,%esi
  401f93:	bf a8 34 40 00       	mov    $0x4034a8,%edi
  401f98:	b8 00 00 00 00       	mov    $0x0,%eax
  401f9d:	e8 de ec ff ff       	callq  400c80 <printf@plt>
  401fa2:	be 00 00 00 00       	mov    $0x0,%esi
  401fa7:	bf 00 00 00 00       	mov    $0x0,%edi
  401fac:	e8 5b fc ff ff       	callq  401c0c <notify_server>
  401fb1:	bf 01 00 00 00       	mov    $0x1,%edi
  401fb6:	e8 35 ee ff ff       	callq  400df0 <exit@plt>

0000000000401fbb <launch>:
  401fbb:	55                   	push   %rbp
  401fbc:	48 89 e5             	mov    %rsp,%rbp
  401fbf:	48 89 fa             	mov    %rdi,%rdx
  401fc2:	48 8d 47 1e          	lea    0x1e(%rdi),%rax
  401fc6:	48 83 e0 f0          	and    $0xfffffffffffffff0,%rax
  401fca:	48 29 c4             	sub    %rax,%rsp
  401fcd:	48 8d 7c 24 0f       	lea    0xf(%rsp),%rdi
  401fd2:	48 83 e7 f0          	and    $0xfffffffffffffff0,%rdi
  401fd6:	be f4 00 00 00       	mov    $0xf4,%esi
  401fdb:	e8 b0 ec ff ff       	callq  400c90 <memset@plt>
  401fe0:	48 8b 05 d9 34 20 00 	mov    0x2034d9(%rip),%rax        # 6054c0 <stdin@@GLIBC_2.2.5>
  401fe7:	48 39 05 02 35 20 00 	cmp    %rax,0x203502(%rip)        # 6054f0 <infile>
  401fee:	75 0f                	jne    401fff <launch+0x44>
  401ff0:	bf 14 33 40 00       	mov    $0x403314,%edi
  401ff5:	b8 00 00 00 00       	mov    $0x0,%eax
  401ffa:	e8 81 ec ff ff       	callq  400c80 <printf@plt>
  401fff:	c7 05 f3 34 20 00 00 	movl   $0x0,0x2034f3(%rip)        # 6054fc <vlevel>
  402006:	00 00 00 
  402009:	b8 00 00 00 00       	mov    $0x0,%eax
  40200e:	e8 b5 f9 ff ff       	callq  4019c8 <test>
  402013:	83 3d ee 34 20 00 00 	cmpl   $0x0,0x2034ee(%rip)        # 605508 <is_checker>
  40201a:	74 14                	je     402030 <launch+0x75>
  40201c:	bf 21 33 40 00       	mov    $0x403321,%edi
  402021:	e8 2a ec ff ff       	callq  400c50 <puts@plt>
  402026:	b8 00 00 00 00       	mov    $0x0,%eax
  40202b:	e8 5b fb ff ff       	callq  401b8b <check_fail>
  402030:	bf 2c 33 40 00       	mov    $0x40332c,%edi
  402035:	e8 16 ec ff ff       	callq  400c50 <puts@plt>
  40203a:	c9                   	leaveq 
  40203b:	c3                   	retq   

000000000040203c <stable_launch>:
  40203c:	53                   	push   %rbx
  40203d:	48 89 3d a4 34 20 00 	mov    %rdi,0x2034a4(%rip)        # 6054e8 <global_offset>
  402044:	41 b9 00 00 00 00    	mov    $0x0,%r9d
  40204a:	41 b8 00 00 00 00    	mov    $0x0,%r8d
  402050:	b9 32 01 00 00       	mov    $0x132,%ecx
  402055:	ba 07 00 00 00       	mov    $0x7,%edx
  40205a:	be 00 00 10 00       	mov    $0x100000,%esi
  40205f:	bf 00 60 58 55       	mov    $0x55586000,%edi
  402064:	e8 07 ec ff ff       	callq  400c70 <mmap@plt>
  402069:	48 89 c3             	mov    %rax,%rbx
  40206c:	48 3d 00 60 58 55    	cmp    $0x55586000,%rax
  402072:	74 32                	je     4020a6 <stable_launch+0x6a>
  402074:	be 00 00 10 00       	mov    $0x100000,%esi
  402079:	48 89 c7             	mov    %rax,%rdi
  40207c:	e8 ff ec ff ff       	callq  400d80 <munmap@plt>
  402081:	ba 00 60 58 55       	mov    $0x55586000,%edx
  402086:	be e0 34 40 00       	mov    $0x4034e0,%esi
  40208b:	48 8b 3d 3e 34 20 00 	mov    0x20343e(%rip),%rdi        # 6054d0 <stderr@@GLIBC_2.2.5>
  402092:	b8 00 00 00 00       	mov    $0x0,%eax
  402097:	e8 64 ec ff ff       	callq  400d00 <fprintf@plt>
  40209c:	bf 01 00 00 00       	mov    $0x1,%edi
  4020a1:	e8 4a ed ff ff       	callq  400df0 <exit@plt>
  4020a6:	48 8d 90 f8 ff 0f 00 	lea    0xffff8(%rax),%rdx
  4020ad:	48 89 15 7c 40 20 00 	mov    %rdx,0x20407c(%rip)        # 606130 <stack_top>
  4020b4:	48 89 e0             	mov    %rsp,%rax
  4020b7:	48 89 d4             	mov    %rdx,%rsp
  4020ba:	48 89 c2             	mov    %rax,%rdx
  4020bd:	48 89 15 1c 34 20 00 	mov    %rdx,0x20341c(%rip)        # 6054e0 <global_save_stack>
  4020c4:	48 8b 3d 1d 34 20 00 	mov    0x20341d(%rip),%rdi        # 6054e8 <global_offset>
  4020cb:	e8 eb fe ff ff       	callq  401fbb <launch>
  4020d0:	48 8b 05 09 34 20 00 	mov    0x203409(%rip),%rax        # 6054e0 <global_save_stack>
  4020d7:	48 89 c4             	mov    %rax,%rsp
  4020da:	be 00 00 10 00       	mov    $0x100000,%esi
  4020df:	48 89 df             	mov    %rbx,%rdi
  4020e2:	e8 99 ec ff ff       	callq  400d80 <munmap@plt>
  4020e7:	5b                   	pop    %rbx
  4020e8:	c3                   	retq   
  4020e9:	0f 1f 80 00 00 00 00 	nopl   0x0(%rax)

00000000004020f0 <rio_readinitb>:
  4020f0:	89 37                	mov    %esi,(%rdi)
  4020f2:	c7 47 04 00 00 00 00 	movl   $0x0,0x4(%rdi)
  4020f9:	48 8d 47 10          	lea    0x10(%rdi),%rax
  4020fd:	48 89 47 08          	mov    %rax,0x8(%rdi)
  402101:	c3                   	retq   

0000000000402102 <sigalrm_handler>:
  402102:	48 83 ec 08          	sub    $0x8,%rsp
  402106:	ba 00 00 00 00       	mov    $0x0,%edx
  40210b:	be 20 35 40 00       	mov    $0x403520,%esi
  402110:	48 8b 3d b9 33 20 00 	mov    0x2033b9(%rip),%rdi        # 6054d0 <stderr@@GLIBC_2.2.5>
  402117:	b8 00 00 00 00       	mov    $0x0,%eax
  40211c:	e8 df eb ff ff       	callq  400d00 <fprintf@plt>
  402121:	bf 01 00 00 00       	mov    $0x1,%edi
  402126:	e8 c5 ec ff ff       	callq  400df0 <exit@plt>

000000000040212b <urlencode>:
  40212b:	41 54                	push   %r12
  40212d:	55                   	push   %rbp
  40212e:	53                   	push   %rbx
  40212f:	48 83 ec 10          	sub    $0x10,%rsp
  402133:	48 89 fb             	mov    %rdi,%rbx
  402136:	48 89 f5             	mov    %rsi,%rbp
  402139:	b8 00 00 00 00       	mov    $0x0,%eax
  40213e:	48 c7 c1 ff ff ff ff 	mov    $0xffffffffffffffff,%rcx
  402145:	f2 ae                	repnz scas %es:(%rdi),%al
  402147:	48 f7 d1             	not    %rcx
  40214a:	8d 41 ff             	lea    -0x1(%rcx),%eax
  40214d:	e9 93 00 00 00       	jmpq   4021e5 <urlencode+0xba>
  402152:	0f b6 13             	movzbl (%rbx),%edx
  402155:	80 fa 2a             	cmp    $0x2a,%dl
  402158:	0f 94 c1             	sete   %cl
  40215b:	80 fa 2d             	cmp    $0x2d,%dl
  40215e:	0f 94 c0             	sete   %al
  402161:	08 c1                	or     %al,%cl
  402163:	75 1f                	jne    402184 <urlencode+0x59>
  402165:	80 fa 2e             	cmp    $0x2e,%dl
  402168:	74 1a                	je     402184 <urlencode+0x59>
  40216a:	80 fa 5f             	cmp    $0x5f,%dl
  40216d:	74 15                	je     402184 <urlencode+0x59>
  40216f:	8d 42 d0             	lea    -0x30(%rdx),%eax
  402172:	3c 09                	cmp    $0x9,%al
  402174:	76 0e                	jbe    402184 <urlencode+0x59>
  402176:	8d 42 bf             	lea    -0x41(%rdx),%eax
  402179:	3c 19                	cmp    $0x19,%al
  40217b:	76 07                	jbe    402184 <urlencode+0x59>
  40217d:	8d 42 9f             	lea    -0x61(%rdx),%eax
  402180:	3c 19                	cmp    $0x19,%al
  402182:	77 09                	ja     40218d <urlencode+0x62>
  402184:	88 55 00             	mov    %dl,0x0(%rbp)
  402187:	48 8d 6d 01          	lea    0x1(%rbp),%rbp
  40218b:	eb 51                	jmp    4021de <urlencode+0xb3>
  40218d:	80 fa 20             	cmp    $0x20,%dl
  402190:	75 0a                	jne    40219c <urlencode+0x71>
  402192:	c6 45 00 2b          	movb   $0x2b,0x0(%rbp)
  402196:	48 8d 6d 01          	lea    0x1(%rbp),%rbp
  40219a:	eb 42                	jmp    4021de <urlencode+0xb3>
  40219c:	8d 42 e0             	lea    -0x20(%rdx),%eax
  40219f:	3c 5f                	cmp    $0x5f,%al
  4021a1:	0f 96 c1             	setbe  %cl
  4021a4:	80 fa 09             	cmp    $0x9,%dl
  4021a7:	0f 94 c0             	sete   %al
  4021aa:	08 c1                	or     %al,%cl
  4021ac:	74 45                	je     4021f3 <urlencode+0xc8>
  4021ae:	0f b6 d2             	movzbl %dl,%edx
  4021b1:	be b8 35 40 00       	mov    $0x4035b8,%esi
  4021b6:	48 89 e7             	mov    %rsp,%rdi
  4021b9:	b8 00 00 00 00       	mov    $0x0,%eax
  4021be:	e8 1d ec ff ff       	callq  400de0 <sprintf@plt>
  4021c3:	0f b6 04 24          	movzbl (%rsp),%eax
  4021c7:	88 45 00             	mov    %al,0x0(%rbp)
  4021ca:	0f b6 44 24 01       	movzbl 0x1(%rsp),%eax
  4021cf:	88 45 01             	mov    %al,0x1(%rbp)
  4021d2:	0f b6 44 24 02       	movzbl 0x2(%rsp),%eax
  4021d7:	88 45 02             	mov    %al,0x2(%rbp)
  4021da:	48 8d 6d 03          	lea    0x3(%rbp),%rbp
  4021de:	48 83 c3 01          	add    $0x1,%rbx
  4021e2:	44 89 e0             	mov    %r12d,%eax
  4021e5:	44 8d 60 ff          	lea    -0x1(%rax),%r12d
  4021e9:	85 c0                	test   %eax,%eax
  4021eb:	0f 85 61 ff ff ff    	jne    402152 <urlencode+0x27>
  4021f1:	eb 05                	jmp    4021f8 <urlencode+0xcd>
  4021f3:	b8 ff ff ff ff       	mov    $0xffffffff,%eax
  4021f8:	48 83 c4 10          	add    $0x10,%rsp
  4021fc:	5b                   	pop    %rbx
  4021fd:	5d                   	pop    %rbp
  4021fe:	41 5c                	pop    %r12
  402200:	c3                   	retq   

0000000000402201 <rio_writen>:
  402201:	41 55                	push   %r13
  402203:	41 54                	push   %r12
  402205:	55                   	push   %rbp
  402206:	53                   	push   %rbx
  402207:	48 83 ec 08          	sub    $0x8,%rsp
  40220b:	41 89 fc             	mov    %edi,%r12d
  40220e:	48 89 f5             	mov    %rsi,%rbp
  402211:	49 89 d5             	mov    %rdx,%r13
  402214:	48 89 d3             	mov    %rdx,%rbx
  402217:	eb 28                	jmp    402241 <rio_writen+0x40>
  402219:	48 89 da             	mov    %rbx,%rdx
  40221c:	48 89 ee             	mov    %rbp,%rsi
  40221f:	44 89 e7             	mov    %r12d,%edi
  402222:	e8 39 ea ff ff       	callq  400c60 <write@plt>
  402227:	48 85 c0             	test   %rax,%rax
  40222a:	7f 0f                	jg     40223b <rio_writen+0x3a>
  40222c:	e8 df e9 ff ff       	callq  400c10 <__errno_location@plt>
  402231:	83 38 04             	cmpl   $0x4,(%rax)
  402234:	75 15                	jne    40224b <rio_writen+0x4a>
  402236:	b8 00 00 00 00       	mov    $0x0,%eax
  40223b:	48 29 c3             	sub    %rax,%rbx
  40223e:	48 01 c5             	add    %rax,%rbp
  402241:	48 85 db             	test   %rbx,%rbx
  402244:	75 d3                	jne    402219 <rio_writen+0x18>
  402246:	4c 89 e8             	mov    %r13,%rax
  402249:	eb 07                	jmp    402252 <rio_writen+0x51>
  40224b:	48 c7 c0 ff ff ff ff 	mov    $0xffffffffffffffff,%rax
  402252:	48 83 c4 08          	add    $0x8,%rsp
  402256:	5b                   	pop    %rbx
  402257:	5d                   	pop    %rbp
  402258:	41 5c                	pop    %r12
  40225a:	41 5d                	pop    %r13
  40225c:	c3                   	retq   

000000000040225d <rio_read>:
  40225d:	41 56                	push   %r14
  40225f:	41 55                	push   %r13
  402261:	41 54                	push   %r12
  402263:	55                   	push   %rbp
  402264:	53                   	push   %rbx
  402265:	48 89 fb             	mov    %rdi,%rbx
  402268:	49 89 f6             	mov    %rsi,%r14
  40226b:	49 89 d5             	mov    %rdx,%r13
  40226e:	4c 8d 67 10          	lea    0x10(%rdi),%r12
  402272:	eb 2a                	jmp    40229e <rio_read+0x41>
  402274:	ba 00 20 00 00       	mov    $0x2000,%edx
  402279:	4c 89 e6             	mov    %r12,%rsi
  40227c:	8b 3b                	mov    (%rbx),%edi
  40227e:	e8 3d ea ff ff       	callq  400cc0 <read@plt>
  402283:	89 43 04             	mov    %eax,0x4(%rbx)
  402286:	85 c0                	test   %eax,%eax
  402288:	79 0c                	jns    402296 <rio_read+0x39>
  40228a:	e8 81 e9 ff ff       	callq  400c10 <__errno_location@plt>
  40228f:	83 38 04             	cmpl   $0x4,(%rax)
  402292:	74 0a                	je     40229e <rio_read+0x41>
  402294:	eb 37                	jmp    4022cd <rio_read+0x70>
  402296:	85 c0                	test   %eax,%eax
  402298:	74 3c                	je     4022d6 <rio_read+0x79>
  40229a:	4c 89 63 08          	mov    %r12,0x8(%rbx)
  40229e:	8b 6b 04             	mov    0x4(%rbx),%ebp
  4022a1:	85 ed                	test   %ebp,%ebp
  4022a3:	7e cf                	jle    402274 <rio_read+0x17>
  4022a5:	89 e8                	mov    %ebp,%eax
  4022a7:	4c 39 e8             	cmp    %r13,%rax
  4022aa:	72 03                	jb     4022af <rio_read+0x52>
  4022ac:	44 89 ed             	mov    %r13d,%ebp
  4022af:	4c 63 e5             	movslq %ebp,%r12
  4022b2:	48 8b 73 08          	mov    0x8(%rbx),%rsi
  4022b6:	4c 89 e2             	mov    %r12,%rdx
  4022b9:	4c 89 f7             	mov    %r14,%rdi
  4022bc:	e8 6f ea ff ff       	callq  400d30 <memcpy@plt>
  4022c1:	4c 01 63 08          	add    %r12,0x8(%rbx)
  4022c5:	29 6b 04             	sub    %ebp,0x4(%rbx)
  4022c8:	4c 89 e0             	mov    %r12,%rax
  4022cb:	eb 0e                	jmp    4022db <rio_read+0x7e>
  4022cd:	48 c7 c0 ff ff ff ff 	mov    $0xffffffffffffffff,%rax
  4022d4:	eb 05                	jmp    4022db <rio_read+0x7e>
  4022d6:	b8 00 00 00 00       	mov    $0x0,%eax
  4022db:	5b                   	pop    %rbx
  4022dc:	5d                   	pop    %rbp
  4022dd:	41 5c                	pop    %r12
  4022df:	41 5d                	pop    %r13
  4022e1:	41 5e                	pop    %r14
  4022e3:	c3                   	retq   

00000000004022e4 <rio_readlineb>:
  4022e4:	41 55                	push   %r13
  4022e6:	41 54                	push   %r12
  4022e8:	55                   	push   %rbp
  4022e9:	53                   	push   %rbx
  4022ea:	48 83 ec 18          	sub    $0x18,%rsp
  4022ee:	49 89 fd             	mov    %rdi,%r13
  4022f1:	48 89 f5             	mov    %rsi,%rbp
  4022f4:	49 89 d4             	mov    %rdx,%r12
  4022f7:	bb 01 00 00 00       	mov    $0x1,%ebx
  4022fc:	eb 3d                	jmp    40233b <rio_readlineb+0x57>
  4022fe:	ba 01 00 00 00       	mov    $0x1,%edx
  402303:	48 8d 74 24 0f       	lea    0xf(%rsp),%rsi
  402308:	4c 89 ef             	mov    %r13,%rdi
  40230b:	e8 4d ff ff ff       	callq  40225d <rio_read>
  402310:	83 f8 01             	cmp    $0x1,%eax
  402313:	75 12                	jne    402327 <rio_readlineb+0x43>
  402315:	48 8d 55 01          	lea    0x1(%rbp),%rdx
  402319:	0f b6 44 24 0f       	movzbl 0xf(%rsp),%eax
  40231e:	88 45 00             	mov    %al,0x0(%rbp)
  402321:	3c 0a                	cmp    $0xa,%al
  402323:	75 0f                	jne    402334 <rio_readlineb+0x50>
  402325:	eb 1b                	jmp    402342 <rio_readlineb+0x5e>
  402327:	85 c0                	test   %eax,%eax
  402329:	75 23                	jne    40234e <rio_readlineb+0x6a>
  40232b:	48 83 fb 01          	cmp    $0x1,%rbx
  40232f:	90                   	nop
  402330:	75 13                	jne    402345 <rio_readlineb+0x61>
  402332:	eb 23                	jmp    402357 <rio_readlineb+0x73>
  402334:	48 83 c3 01          	add    $0x1,%rbx
  402338:	48 89 d5             	mov    %rdx,%rbp
  40233b:	4c 39 e3             	cmp    %r12,%rbx
  40233e:	72 be                	jb     4022fe <rio_readlineb+0x1a>
  402340:	eb 03                	jmp    402345 <rio_readlineb+0x61>
  402342:	48 89 d5             	mov    %rdx,%rbp
  402345:	c6 45 00 00          	movb   $0x0,0x0(%rbp)
  402349:	48 89 d8             	mov    %rbx,%rax
  40234c:	eb 0e                	jmp    40235c <rio_readlineb+0x78>
  40234e:	48 c7 c0 ff ff ff ff 	mov    $0xffffffffffffffff,%rax
  402355:	eb 05                	jmp    40235c <rio_readlineb+0x78>
  402357:	b8 00 00 00 00       	mov    $0x0,%eax
  40235c:	48 83 c4 18          	add    $0x18,%rsp
  402360:	5b                   	pop    %rbx
  402361:	5d                   	pop    %rbp
  402362:	41 5c                	pop    %r12
  402364:	41 5d                	pop    %r13
  402366:	c3                   	retq   

0000000000402367 <submitr>:
  402367:	41 57                	push   %r15
  402369:	41 56                	push   %r14
  40236b:	41 55                	push   %r13
  40236d:	41 54                	push   %r12
  40236f:	55                   	push   %rbp
  402370:	53                   	push   %rbx
  402371:	48 81 ec 48 a0 00 00 	sub    $0xa048,%rsp
  402378:	49 89 fc             	mov    %rdi,%r12
  40237b:	89 74 24 04          	mov    %esi,0x4(%rsp)
  40237f:	49 89 d7             	mov    %rdx,%r15
  402382:	49 89 ce             	mov    %rcx,%r14
  402385:	4c 89 44 24 08       	mov    %r8,0x8(%rsp)
  40238a:	4d 89 cd             	mov    %r9,%r13
  40238d:	48 8b 9c 24 80 a0 00 	mov    0xa080(%rsp),%rbx
  402394:	00 
  402395:	c7 84 24 1c 20 00 00 	movl   $0x0,0x201c(%rsp)
  40239c:	00 00 00 00 
  4023a0:	ba 00 00 00 00       	mov    $0x0,%edx
  4023a5:	be 01 00 00 00       	mov    $0x1,%esi
  4023aa:	bf 02 00 00 00       	mov    $0x2,%edi
  4023af:	e8 5c ea ff ff       	callq  400e10 <socket@plt>
  4023b4:	89 c5                	mov    %eax,%ebp
  4023b6:	85 c0                	test   %eax,%eax
  4023b8:	79 4e                	jns    402408 <submitr+0xa1>
  4023ba:	48 b8 45 72 72 6f 72 	mov    $0x43203a726f727245,%rax
  4023c1:	3a 20 43 
  4023c4:	48 89 03             	mov    %rax,(%rbx)
  4023c7:	48 b8 6c 69 65 6e 74 	mov    $0x6e7520746e65696c,%rax
  4023ce:	20 75 6e 
  4023d1:	48 89 43 08          	mov    %rax,0x8(%rbx)
  4023d5:	48 b8 61 62 6c 65 20 	mov    $0x206f7420656c6261,%rax
  4023dc:	74 6f 20 
  4023df:	48 89 43 10          	mov    %rax,0x10(%rbx)
  4023e3:	48 b8 63 72 65 61 74 	mov    $0x7320657461657263,%rax
  4023ea:	65 20 73 
  4023ed:	48 89 43 18          	mov    %rax,0x18(%rbx)
  4023f1:	c7 43 20 6f 63 6b 65 	movl   $0x656b636f,0x20(%rbx)
  4023f8:	66 c7 43 24 74 00    	movw   $0x74,0x24(%rbx)
  4023fe:	b8 ff ff ff ff       	mov    $0xffffffff,%eax
  402403:	e9 68 06 00 00       	jmpq   402a70 <submitr+0x709>
  402408:	4c 89 e7             	mov    %r12,%rdi
  40240b:	e8 e0 e8 ff ff       	callq  400cf0 <gethostbyname@plt>
  402410:	48 85 c0             	test   %rax,%rax
  402413:	75 67                	jne    40247c <submitr+0x115>
  402415:	48 b8 45 72 72 6f 72 	mov    $0x44203a726f727245,%rax
  40241c:	3a 20 44 
  40241f:	48 89 03             	mov    %rax,(%rbx)
  402422:	48 b8 4e 53 20 69 73 	mov    $0x6e7520736920534e,%rax
  402429:	20 75 6e 
  40242c:	48 89 43 08          	mov    %rax,0x8(%rbx)
  402430:	48 b8 61 62 6c 65 20 	mov    $0x206f7420656c6261,%rax
  402437:	74 6f 20 
  40243a:	48 89 43 10          	mov    %rax,0x10(%rbx)
  40243e:	48 b8 72 65 73 6f 6c 	mov    $0x2065766c6f736572,%rax
  402445:	76 65 20 
  402448:	48 89 43 18          	mov    %rax,0x18(%rbx)
  40244c:	48 b8 73 65 72 76 65 	mov    $0x6120726576726573,%rax
  402453:	72 20 61 
  402456:	48 89 43 20          	mov    %rax,0x20(%rbx)
  40245a:	c7 43 28 64 64 72 65 	movl   $0x65726464,0x28(%rbx)
  402461:	66 c7 43 2c 73 73    	movw   $0x7373,0x2c(%rbx)
  402467:	c6 43 2e 00          	movb   $0x0,0x2e(%rbx)
  40246b:	89 ef                	mov    %ebp,%edi
  40246d:	e8 3e e8 ff ff       	callq  400cb0 <close@plt>
  402472:	b8 ff ff ff ff       	mov    $0xffffffff,%eax
  402477:	e9 f4 05 00 00       	jmpq   402a70 <submitr+0x709>
  40247c:	48 c7 84 24 30 a0 00 	movq   $0x0,0xa030(%rsp)
  402483:	00 00 00 00 00 
  402488:	48 c7 84 24 38 a0 00 	movq   $0x0,0xa038(%rsp)
  40248f:	00 00 00 00 00 
  402494:	66 c7 84 24 30 a0 00 	movw   $0x2,0xa030(%rsp)
  40249b:	00 02 00 
  40249e:	48 8b 48 18          	mov    0x18(%rax),%rcx
  4024a2:	48 63 50 14          	movslq 0x14(%rax),%rdx
  4024a6:	48 8d b4 24 34 a0 00 	lea    0xa034(%rsp),%rsi
  4024ad:	00 
  4024ae:	48 8b 39             	mov    (%rcx),%rdi
  4024b1:	e8 da e8 ff ff       	callq  400d90 <bcopy@plt>
  4024b6:	0f b7 44 24 04       	movzwl 0x4(%rsp),%eax
  4024bb:	66 c1 c8 08          	ror    $0x8,%ax
  4024bf:	66 89 84 24 32 a0 00 	mov    %ax,0xa032(%rsp)
  4024c6:	00 
  4024c7:	ba 10 00 00 00       	mov    $0x10,%edx
  4024cc:	48 8d b4 24 30 a0 00 	lea    0xa030(%rsp),%rsi
  4024d3:	00 
  4024d4:	89 ef                	mov    %ebp,%edi
  4024d6:	e8 25 e9 ff ff       	callq  400e00 <connect@plt>
  4024db:	85 c0                	test   %eax,%eax
  4024dd:	79 59                	jns    402538 <submitr+0x1d1>
  4024df:	48 b8 45 72 72 6f 72 	mov    $0x55203a726f727245,%rax
  4024e6:	3a 20 55 
  4024e9:	48 89 03             	mov    %rax,(%rbx)
  4024ec:	48 b8 6e 61 62 6c 65 	mov    $0x6f7420656c62616e,%rax
  4024f3:	20 74 6f 
  4024f6:	48 89 43 08          	mov    %rax,0x8(%rbx)
  4024fa:	48 b8 20 63 6f 6e 6e 	mov    $0x7463656e6e6f6320,%rax
  402501:	65 63 74 
  402504:	48 89 43 10          	mov    %rax,0x10(%rbx)
  402508:	48 b8 20 74 6f 20 74 	mov    $0x20656874206f7420,%rax
  40250f:	68 65 20 
  402512:	48 89 43 18          	mov    %rax,0x18(%rbx)
  402516:	c7 43 20 73 65 72 76 	movl   $0x76726573,0x20(%rbx)
  40251d:	66 c7 43 24 65 72    	movw   $0x7265,0x24(%rbx)
  402523:	c6 43 26 00          	movb   $0x0,0x26(%rbx)
  402527:	89 ef                	mov    %ebp,%edi
  402529:	e8 82 e7 ff ff       	callq  400cb0 <close@plt>
  40252e:	b8 ff ff ff ff       	mov    $0xffffffff,%eax
  402533:	e9 38 05 00 00       	jmpq   402a70 <submitr+0x709>
  402538:	48 c7 c2 ff ff ff ff 	mov    $0xffffffffffffffff,%rdx
  40253f:	4c 89 ef             	mov    %r13,%rdi
  402542:	b8 00 00 00 00       	mov    $0x0,%eax
  402547:	48 89 d1             	mov    %rdx,%rcx
  40254a:	f2 ae                	repnz scas %es:(%rdi),%al
  40254c:	48 f7 d1             	not    %rcx
  40254f:	48 89 ce             	mov    %rcx,%rsi
  402552:	4c 89 ff             	mov    %r15,%rdi
  402555:	48 89 d1             	mov    %rdx,%rcx
  402558:	f2 ae                	repnz scas %es:(%rdi),%al
  40255a:	48 f7 d1             	not    %rcx
  40255d:	49 89 c8             	mov    %rcx,%r8
  402560:	4c 89 f7             	mov    %r14,%rdi
  402563:	48 89 d1             	mov    %rdx,%rcx
  402566:	f2 ae                	repnz scas %es:(%rdi),%al
  402568:	49 29 c8             	sub    %rcx,%r8
  40256b:	48 8b 7c 24 08       	mov    0x8(%rsp),%rdi
  402570:	48 89 d1             	mov    %rdx,%rcx
  402573:	f2 ae                	repnz scas %es:(%rdi),%al
  402575:	49 29 c8             	sub    %rcx,%r8
  402578:	48 8d 44 76 fd       	lea    -0x3(%rsi,%rsi,2),%rax
  40257d:	49 8d 44 00 7b       	lea    0x7b(%r8,%rax,1),%rax
  402582:	48 3d 00 20 00 00    	cmp    $0x2000,%rax
  402588:	76 72                	jbe    4025fc <submitr+0x295>
  40258a:	48 b8 45 72 72 6f 72 	mov    $0x52203a726f727245,%rax
  402591:	3a 20 52 
  402594:	48 89 03             	mov    %rax,(%rbx)
  402597:	48 b8 65 73 75 6c 74 	mov    $0x747320746c757365,%rax
  40259e:	20 73 74 
  4025a1:	48 89 43 08          	mov    %rax,0x8(%rbx)
  4025a5:	48 b8 72 69 6e 67 20 	mov    $0x6f6f7420676e6972,%rax
  4025ac:	74 6f 6f 
  4025af:	48 89 43 10          	mov    %rax,0x10(%rbx)
  4025b3:	48 b8 20 6c 61 72 67 	mov    $0x202e656772616c20,%rax
  4025ba:	65 2e 20 
  4025bd:	48 89 43 18          	mov    %rax,0x18(%rbx)
  4025c1:	48 b8 49 6e 63 72 65 	mov    $0x6573616572636e49,%rax
  4025c8:	61 73 65 
  4025cb:	48 89 43 20          	mov    %rax,0x20(%rbx)
  4025cf:	48 b8 20 53 55 42 4d 	mov    $0x5254494d42555320,%rax
  4025d6:	49 54 52 
  4025d9:	48 89 43 28          	mov    %rax,0x28(%rbx)
  4025dd:	48 b8 5f 4d 41 58 42 	mov    $0x46554258414d5f,%rax
  4025e4:	55 46 00 
  4025e7:	48 89 43 30          	mov    %rax,0x30(%rbx)
  4025eb:	89 ef                	mov    %ebp,%edi
  4025ed:	e8 be e6 ff ff       	callq  400cb0 <close@plt>
  4025f2:	b8 ff ff ff ff       	mov    $0xffffffff,%eax
  4025f7:	e9 74 04 00 00       	jmpq   402a70 <submitr+0x709>
  4025fc:	48 8d b4 24 20 40 00 	lea    0x4020(%rsp),%rsi
  402603:	00 
  402604:	b9 00 04 00 00       	mov    $0x400,%ecx
  402609:	b8 00 00 00 00       	mov    $0x0,%eax
  40260e:	48 89 f7             	mov    %rsi,%rdi
  402611:	f3 48 ab             	rep stos %rax,%es:(%rdi)
  402614:	4c 89 ef             	mov    %r13,%rdi
  402617:	e8 0f fb ff ff       	callq  40212b <urlencode>
  40261c:	85 c0                	test   %eax,%eax
  40261e:	0f 89 8a 00 00 00    	jns    4026ae <submitr+0x347>
  402624:	48 b8 45 72 72 6f 72 	mov    $0x52203a726f727245,%rax
  40262b:	3a 20 52 
  40262e:	48 89 03             	mov    %rax,(%rbx)
  402631:	48 b8 65 73 75 6c 74 	mov    $0x747320746c757365,%rax
  402638:	20 73 74 
  40263b:	48 89 43 08          	mov    %rax,0x8(%rbx)
  40263f:	48 b8 72 69 6e 67 20 	mov    $0x6e6f6320676e6972,%rax
  402646:	63 6f 6e 
  402649:	48 89 43 10          	mov    %rax,0x10(%rbx)
  40264d:	48 b8 74 61 69 6e 73 	mov    $0x6e6120736e696174,%rax
  402654:	20 61 6e 
  402657:	48 89 43 18          	mov    %rax,0x18(%rbx)
  40265b:	48 b8 20 69 6c 6c 65 	mov    $0x6c6167656c6c6920,%rax
  402662:	67 61 6c 
  402665:	48 89 43 20          	mov    %rax,0x20(%rbx)
  402669:	48 b8 20 6f 72 20 75 	mov    $0x72706e7520726f20,%rax
  402670:	6e 70 72 
  402673:	48 89 43 28          	mov    %rax,0x28(%rbx)
  402677:	48 b8 69 6e 74 61 62 	mov    $0x20656c6261746e69,%rax
  40267e:	6c 65 20 
  402681:	48 89 43 30          	mov    %rax,0x30(%rbx)
  402685:	48 b8 63 68 61 72 61 	mov    $0x6574636172616863,%rax
  40268c:	63 74 65 
  40268f:	48 89 43 38          	mov    %rax,0x38(%rbx)
  402693:	66 c7 43 40 72 2e    	movw   $0x2e72,0x40(%rbx)
  402699:	c6 43 42 00          	movb   $0x0,0x42(%rbx)
  40269d:	89 ef                	mov    %ebp,%edi
  40269f:	e8 0c e6 ff ff       	callq  400cb0 <close@plt>
  4026a4:	b8 ff ff ff ff       	mov    $0xffffffff,%eax
  4026a9:	e9 c2 03 00 00       	jmpq   402a70 <submitr+0x709>
  4026ae:	4d 89 e1             	mov    %r12,%r9
  4026b1:	4c 8d 84 24 20 40 00 	lea    0x4020(%rsp),%r8
  4026b8:	00 
  4026b9:	4c 89 f9             	mov    %r15,%rcx
  4026bc:	4c 89 f2             	mov    %r14,%rdx
  4026bf:	be 48 35 40 00       	mov    $0x403548,%esi
  4026c4:	48 8d bc 24 20 60 00 	lea    0x6020(%rsp),%rdi
  4026cb:	00 
  4026cc:	b8 00 00 00 00       	mov    $0x0,%eax
  4026d1:	e8 0a e7 ff ff       	callq  400de0 <sprintf@plt>
  4026d6:	48 8d bc 24 20 60 00 	lea    0x6020(%rsp),%rdi
  4026dd:	00 
  4026de:	b8 00 00 00 00       	mov    $0x0,%eax
  4026e3:	48 c7 c1 ff ff ff ff 	mov    $0xffffffffffffffff,%rcx
  4026ea:	f2 ae                	repnz scas %es:(%rdi),%al
  4026ec:	48 f7 d1             	not    %rcx
  4026ef:	48 8d 51 ff          	lea    -0x1(%rcx),%rdx
  4026f3:	48 8d b4 24 20 60 00 	lea    0x6020(%rsp),%rsi
  4026fa:	00 
  4026fb:	89 ef                	mov    %ebp,%edi
  4026fd:	e8 ff fa ff ff       	callq  402201 <rio_writen>
  402702:	48 85 c0             	test   %rax,%rax
  402705:	79 6e                	jns    402775 <submitr+0x40e>
  402707:	48 b8 45 72 72 6f 72 	mov    $0x43203a726f727245,%rax
  40270e:	3a 20 43 
  402711:	48 89 03             	mov    %rax,(%rbx)
  402714:	48 b8 6c 69 65 6e 74 	mov    $0x6e7520746e65696c,%rax
  40271b:	20 75 6e 
  40271e:	48 89 43 08          	mov    %rax,0x8(%rbx)
  402722:	48 b8 61 62 6c 65 20 	mov    $0x206f7420656c6261,%rax
  402729:	74 6f 20 
  40272c:	48 89 43 10          	mov    %rax,0x10(%rbx)
  402730:	48 b8 77 72 69 74 65 	mov    $0x6f74206574697277,%rax
  402737:	20 74 6f 
  40273a:	48 89 43 18          	mov    %rax,0x18(%rbx)
  40273e:	48 b8 20 74 68 65 20 	mov    $0x7365722065687420,%rax
  402745:	72 65 73 
  402748:	48 89 43 20          	mov    %rax,0x20(%rbx)
  40274c:	48 b8 75 6c 74 20 73 	mov    $0x7672657320746c75,%rax
  402753:	65 72 76 
  402756:	48 89 43 28          	mov    %rax,0x28(%rbx)
  40275a:	66 c7 43 30 65 72    	movw   $0x7265,0x30(%rbx)
  402760:	c6 43 32 00          	movb   $0x0,0x32(%rbx)
  402764:	89 ef                	mov    %ebp,%edi
  402766:	e8 45 e5 ff ff       	callq  400cb0 <close@plt>
  40276b:	b8 ff ff ff ff       	mov    $0xffffffff,%eax
  402770:	e9 fb 02 00 00       	jmpq   402a70 <submitr+0x709>
  402775:	89 ee                	mov    %ebp,%esi
  402777:	48 8d bc 24 20 80 00 	lea    0x8020(%rsp),%rdi
  40277e:	00 
  40277f:	e8 6c f9 ff ff       	callq  4020f0 <rio_readinitb>
  402784:	ba 00 20 00 00       	mov    $0x2000,%edx
  402789:	48 8d b4 24 20 60 00 	lea    0x6020(%rsp),%rsi
  402790:	00 
  402791:	48 8d bc 24 20 80 00 	lea    0x8020(%rsp),%rdi
  402798:	00 
  402799:	e8 46 fb ff ff       	callq  4022e4 <rio_readlineb>
  40279e:	48 85 c0             	test   %rax,%rax
  4027a1:	7f 7d                	jg     402820 <submitr+0x4b9>
  4027a3:	48 b8 45 72 72 6f 72 	mov    $0x43203a726f727245,%rax
  4027aa:	3a 20 43 
  4027ad:	48 89 03             	mov    %rax,(%rbx)
  4027b0:	48 b8 6c 69 65 6e 74 	mov    $0x6e7520746e65696c,%rax
  4027b7:	20 75 6e 
  4027ba:	48 89 43 08          	mov    %rax,0x8(%rbx)
  4027be:	48 b8 61 62 6c 65 20 	mov    $0x206f7420656c6261,%rax
  4027c5:	74 6f 20 
  4027c8:	48 89 43 10          	mov    %rax,0x10(%rbx)
  4027cc:	48 b8 72 65 61 64 20 	mov    $0x7269662064616572,%rax
  4027d3:	66 69 72 
  4027d6:	48 89 43 18          	mov    %rax,0x18(%rbx)
  4027da:	48 b8 73 74 20 68 65 	mov    $0x6564616568207473,%rax
  4027e1:	61 64 65 
  4027e4:	48 89 43 20          	mov    %rax,0x20(%rbx)
  4027e8:	48 b8 72 20 66 72 6f 	mov    $0x72206d6f72662072,%rax
  4027ef:	6d 20 72 
  4027f2:	48 89 43 28          	mov    %rax,0x28(%rbx)
  4027f6:	48 b8 65 73 75 6c 74 	mov    $0x657320746c757365,%rax
  4027fd:	20 73 65 
  402800:	48 89 43 30          	mov    %rax,0x30(%rbx)
  402804:	c7 43 38 72 76 65 72 	movl   $0x72657672,0x38(%rbx)
  40280b:	c6 43 3c 00          	movb   $0x0,0x3c(%rbx)
  40280f:	89 ef                	mov    %ebp,%edi
  402811:	e8 9a e4 ff ff       	callq  400cb0 <close@plt>
  402816:	b8 ff ff ff ff       	mov    $0xffffffff,%eax
  40281b:	e9 50 02 00 00       	jmpq   402a70 <submitr+0x709>
  402820:	4c 8d 44 24 10       	lea    0x10(%rsp),%r8
  402825:	48 8d 8c 24 1c 20 00 	lea    0x201c(%rsp),%rcx
  40282c:	00 
  40282d:	48 8d 94 24 20 20 00 	lea    0x2020(%rsp),%rdx
  402834:	00 
  402835:	be bf 35 40 00       	mov    $0x4035bf,%esi
  40283a:	48 8d bc 24 20 60 00 	lea    0x6020(%rsp),%rdi
  402841:	00 
  402842:	b8 00 00 00 00       	mov    $0x0,%eax
  402847:	e8 24 e5 ff ff       	callq  400d70 <__isoc99_sscanf@plt>
  40284c:	e9 98 00 00 00       	jmpq   4028e9 <submitr+0x582>
  402851:	ba 00 20 00 00       	mov    $0x2000,%edx
  402856:	48 8d b4 24 20 60 00 	lea    0x6020(%rsp),%rsi
  40285d:	00 
  40285e:	48 8d bc 24 20 80 00 	lea    0x8020(%rsp),%rdi
  402865:	00 
  402866:	e8 79 fa ff ff       	callq  4022e4 <rio_readlineb>
  40286b:	48 85 c0             	test   %rax,%rax
  40286e:	7f 79                	jg     4028e9 <submitr+0x582>
  402870:	48 b8 45 72 72 6f 72 	mov    $0x43203a726f727245,%rax
  402877:	3a 20 43 
  40287a:	48 89 03             	mov    %rax,(%rbx)
  40287d:	48 b8 6c 69 65 6e 74 	mov    $0x6e7520746e65696c,%rax
  402884:	20 75 6e 
  402887:	48 89 43 08          	mov    %rax,0x8(%rbx)
  40288b:	48 b8 61 62 6c 65 20 	mov    $0x206f7420656c6261,%rax
  402892:	74 6f 20 
  402895:	48 89 43 10          	mov    %rax,0x10(%rbx)
  402899:	48 b8 72 65 61 64 20 	mov    $0x6165682064616572,%rax
  4028a0:	68 65 61 
  4028a3:	48 89 43 18          	mov    %rax,0x18(%rbx)
  4028a7:	48 b8 64 65 72 73 20 	mov    $0x6f72662073726564,%rax
  4028ae:	66 72 6f 
  4028b1:	48 89 43 20          	mov    %rax,0x20(%rbx)
  4028b5:	48 b8 6d 20 74 68 65 	mov    $0x657220656874206d,%rax
  4028bc:	20 72 65 
  4028bf:	48 89 43 28          	mov    %rax,0x28(%rbx)
  4028c3:	48 b8 73 75 6c 74 20 	mov    $0x72657320746c7573,%rax
  4028ca:	73 65 72 
  4028cd:	48 89 43 30          	mov    %rax,0x30(%rbx)
  4028d1:	c7 43 38 76 65 72 00 	movl   $0x726576,0x38(%rbx)
  4028d8:	89 ef                	mov    %ebp,%edi
  4028da:	e8 d1 e3 ff ff       	callq  400cb0 <close@plt>
  4028df:	b8 ff ff ff ff       	mov    $0xffffffff,%eax
  4028e4:	e9 87 01 00 00       	jmpq   402a70 <submitr+0x709>
  4028e9:	0f b6 84 24 20 60 00 	movzbl 0x6020(%rsp),%eax
  4028f0:	00 
  4028f1:	83 e8 0d             	sub    $0xd,%eax
  4028f4:	75 15                	jne    40290b <submitr+0x5a4>
  4028f6:	0f b6 84 24 21 60 00 	movzbl 0x6021(%rsp),%eax
  4028fd:	00 
  4028fe:	83 e8 0a             	sub    $0xa,%eax
  402901:	75 08                	jne    40290b <submitr+0x5a4>
  402903:	0f b6 84 24 22 60 00 	movzbl 0x6022(%rsp),%eax
  40290a:	00 
  40290b:	85 c0                	test   %eax,%eax
  40290d:	0f 85 3e ff ff ff    	jne    402851 <submitr+0x4ea>
  402913:	ba 00 20 00 00       	mov    $0x2000,%edx
  402918:	48 8d b4 24 20 60 00 	lea    0x6020(%rsp),%rsi
  40291f:	00 
  402920:	48 8d bc 24 20 80 00 	lea    0x8020(%rsp),%rdi
  402927:	00 
  402928:	e8 b7 f9 ff ff       	callq  4022e4 <rio_readlineb>
  40292d:	48 85 c0             	test   %rax,%rax
  402930:	0f 8f 83 00 00 00    	jg     4029b9 <submitr+0x652>
  402936:	48 b8 45 72 72 6f 72 	mov    $0x43203a726f727245,%rax
  40293d:	3a 20 43 
  402940:	48 89 03             	mov    %rax,(%rbx)
  402943:	48 b8 6c 69 65 6e 74 	mov    $0x6e7520746e65696c,%rax
  40294a:	20 75 6e 
  40294d:	48 89 43 08          	mov    %rax,0x8(%rbx)
  402951:	48 b8 61 62 6c 65 20 	mov    $0x206f7420656c6261,%rax
  402958:	74 6f 20 
  40295b:	48 89 43 10          	mov    %rax,0x10(%rbx)
  40295f:	48 b8 72 65 61 64 20 	mov    $0x6174732064616572,%rax
  402966:	73 74 61 
  402969:	48 89 43 18          	mov    %rax,0x18(%rbx)
  40296d:	48 b8 74 75 73 20 6d 	mov    $0x7373656d20737574,%rax
  402974:	65 73 73 
  402977:	48 89 43 20          	mov    %rax,0x20(%rbx)
  40297b:	48 b8 61 67 65 20 66 	mov    $0x6d6f726620656761,%rax
  402982:	72 6f 6d 
  402985:	48 89 43 28          	mov    %rax,0x28(%rbx)
  402989:	48 b8 20 72 65 73 75 	mov    $0x20746c7573657220,%rax
  402990:	6c 74 20 
  402993:	48 89 43 30          	mov    %rax,0x30(%rbx)
  402997:	c7 43 38 73 65 72 76 	movl   $0x76726573,0x38(%rbx)
  40299e:	66 c7 43 3c 65 72    	movw   $0x7265,0x3c(%rbx)
  4029a4:	c6 43 3e 00          	movb   $0x0,0x3e(%rbx)
  4029a8:	89 ef                	mov    %ebp,%edi
  4029aa:	e8 01 e3 ff ff       	callq  400cb0 <close@plt>
  4029af:	b8 ff ff ff ff       	mov    $0xffffffff,%eax
  4029b4:	e9 b7 00 00 00       	jmpq   402a70 <submitr+0x709>
  4029b9:	8b 94 24 1c 20 00 00 	mov    0x201c(%rsp),%edx
  4029c0:	81 fa c8 00 00 00    	cmp    $0xc8,%edx
  4029c6:	74 28                	je     4029f0 <submitr+0x689>
  4029c8:	48 8d 4c 24 10       	lea    0x10(%rsp),%rcx
  4029cd:	be 88 35 40 00       	mov    $0x403588,%esi
  4029d2:	48 89 df             	mov    %rbx,%rdi
  4029d5:	b8 00 00 00 00       	mov    $0x0,%eax
  4029da:	e8 01 e4 ff ff       	callq  400de0 <sprintf@plt>
  4029df:	89 ef                	mov    %ebp,%edi
  4029e1:	e8 ca e2 ff ff       	callq  400cb0 <close@plt>
  4029e6:	b8 ff ff ff ff       	mov    $0xffffffff,%eax
  4029eb:	e9 80 00 00 00       	jmpq   402a70 <submitr+0x709>
  4029f0:	48 8d b4 24 20 60 00 	lea    0x6020(%rsp),%rsi
  4029f7:	00 
  4029f8:	48 89 df             	mov    %rbx,%rdi
  4029fb:	e8 40 e2 ff ff       	callq  400c40 <strcpy@plt>
  402a00:	89 ef                	mov    %ebp,%edi
  402a02:	e8 a9 e2 ff ff       	callq  400cb0 <close@plt>
  402a07:	0f b6 03             	movzbl (%rbx),%eax
  402a0a:	83 e8 4f             	sub    $0x4f,%eax
  402a0d:	75 18                	jne    402a27 <submitr+0x6c0>
  402a0f:	0f b6 53 01          	movzbl 0x1(%rbx),%edx
  402a13:	83 ea 4b             	sub    $0x4b,%edx
  402a16:	75 11                	jne    402a29 <submitr+0x6c2>
  402a18:	0f b6 53 02          	movzbl 0x2(%rbx),%edx
  402a1c:	83 ea 0a             	sub    $0xa,%edx
  402a1f:	75 08                	jne    402a29 <submitr+0x6c2>
  402a21:	0f b6 53 03          	movzbl 0x3(%rbx),%edx
  402a25:	eb 02                	jmp    402a29 <submitr+0x6c2>
  402a27:	89 c2                	mov    %eax,%edx
  402a29:	85 d2                	test   %edx,%edx
  402a2b:	74 30                	je     402a5d <submitr+0x6f6>
  402a2d:	bf d0 35 40 00       	mov    $0x4035d0,%edi
  402a32:	b9 05 00 00 00       	mov    $0x5,%ecx
  402a37:	48 89 de             	mov    %rbx,%rsi
  402a3a:	f3 a6                	repz cmpsb %es:(%rdi),%ds:(%rsi)
  402a3c:	0f 97 c1             	seta   %cl
  402a3f:	0f 92 c2             	setb   %dl
  402a42:	38 d1                	cmp    %dl,%cl
  402a44:	74 1e                	je     402a64 <submitr+0x6fd>
  402a46:	85 c0                	test   %eax,%eax
  402a48:	75 0d                	jne    402a57 <submitr+0x6f0>
  402a4a:	0f b6 43 01          	movzbl 0x1(%rbx),%eax
  402a4e:	83 e8 4b             	sub    $0x4b,%eax
  402a51:	75 04                	jne    402a57 <submitr+0x6f0>
  402a53:	0f b6 43 02          	movzbl 0x2(%rbx),%eax
  402a57:	85 c0                	test   %eax,%eax
  402a59:	75 10                	jne    402a6b <submitr+0x704>
  402a5b:	eb 13                	jmp    402a70 <submitr+0x709>
  402a5d:	b8 00 00 00 00       	mov    $0x0,%eax
  402a62:	eb 0c                	jmp    402a70 <submitr+0x709>
  402a64:	b8 00 00 00 00       	mov    $0x0,%eax
  402a69:	eb 05                	jmp    402a70 <submitr+0x709>
  402a6b:	b8 ff ff ff ff       	mov    $0xffffffff,%eax
  402a70:	48 81 c4 48 a0 00 00 	add    $0xa048,%rsp
  402a77:	5b                   	pop    %rbx
  402a78:	5d                   	pop    %rbp
  402a79:	41 5c                	pop    %r12
  402a7b:	41 5d                	pop    %r13
  402a7d:	41 5e                	pop    %r14
  402a7f:	41 5f                	pop    %r15
  402a81:	c3                   	retq   

0000000000402a82 <init_timeout>:
  402a82:	53                   	push   %rbx
  402a83:	89 fb                	mov    %edi,%ebx
  402a85:	85 ff                	test   %edi,%edi
  402a87:	74 1f                	je     402aa8 <init_timeout+0x26>
  402a89:	85 ff                	test   %edi,%edi
  402a8b:	79 05                	jns    402a92 <init_timeout+0x10>
  402a8d:	bb 00 00 00 00       	mov    $0x0,%ebx
  402a92:	be 02 21 40 00       	mov    $0x402102,%esi
  402a97:	bf 0e 00 00 00       	mov    $0xe,%edi
  402a9c:	e8 3f e2 ff ff       	callq  400ce0 <signal@plt>
  402aa1:	89 df                	mov    %ebx,%edi
  402aa3:	e8 f8 e1 ff ff       	callq  400ca0 <alarm@plt>
  402aa8:	5b                   	pop    %rbx
  402aa9:	c3                   	retq   

0000000000402aaa <init_driver>:
  402aaa:	55                   	push   %rbp
  402aab:	53                   	push   %rbx
  402aac:	48 83 ec 18          	sub    $0x18,%rsp
  402ab0:	48 89 fd             	mov    %rdi,%rbp
  402ab3:	be 01 00 00 00       	mov    $0x1,%esi
  402ab8:	bf 0d 00 00 00       	mov    $0xd,%edi
  402abd:	e8 1e e2 ff ff       	callq  400ce0 <signal@plt>
  402ac2:	be 01 00 00 00       	mov    $0x1,%esi
  402ac7:	bf 1d 00 00 00       	mov    $0x1d,%edi
  402acc:	e8 0f e2 ff ff       	callq  400ce0 <signal@plt>
  402ad1:	be 01 00 00 00       	mov    $0x1,%esi
  402ad6:	bf 1d 00 00 00       	mov    $0x1d,%edi
  402adb:	e8 00 e2 ff ff       	callq  400ce0 <signal@plt>
  402ae0:	ba 00 00 00 00       	mov    $0x0,%edx
  402ae5:	be 01 00 00 00       	mov    $0x1,%esi
  402aea:	bf 02 00 00 00       	mov    $0x2,%edi
  402aef:	e8 1c e3 ff ff       	callq  400e10 <socket@plt>
  402af4:	89 c3                	mov    %eax,%ebx
  402af6:	85 c0                	test   %eax,%eax
  402af8:	79 4f                	jns    402b49 <init_driver+0x9f>
  402afa:	48 b8 45 72 72 6f 72 	mov    $0x43203a726f727245,%rax
  402b01:	3a 20 43 
  402b04:	48 89 45 00          	mov    %rax,0x0(%rbp)
  402b08:	48 b8 6c 69 65 6e 74 	mov    $0x6e7520746e65696c,%rax
  402b0f:	20 75 6e 
  402b12:	48 89 45 08          	mov    %rax,0x8(%rbp)
  402b16:	48 b8 61 62 6c 65 20 	mov    $0x206f7420656c6261,%rax
  402b1d:	74 6f 20 
  402b20:	48 89 45 10          	mov    %rax,0x10(%rbp)
  402b24:	48 b8 63 72 65 61 74 	mov    $0x7320657461657263,%rax
  402b2b:	65 20 73 
  402b2e:	48 89 45 18          	mov    %rax,0x18(%rbp)
  402b32:	c7 45 20 6f 63 6b 65 	movl   $0x656b636f,0x20(%rbp)
  402b39:	66 c7 45 24 74 00    	movw   $0x74,0x24(%rbp)
  402b3f:	b8 ff ff ff ff       	mov    $0xffffffff,%eax
  402b44:	e9 23 01 00 00       	jmpq   402c6c <init_driver+0x1c2>
  402b49:	bf f4 30 40 00       	mov    $0x4030f4,%edi
  402b4e:	e8 9d e1 ff ff       	callq  400cf0 <gethostbyname@plt>
  402b53:	48 85 c0             	test   %rax,%rax
  402b56:	75 68                	jne    402bc0 <init_driver+0x116>
  402b58:	48 b8 45 72 72 6f 72 	mov    $0x44203a726f727245,%rax
  402b5f:	3a 20 44 
  402b62:	48 89 45 00          	mov    %rax,0x0(%rbp)
  402b66:	48 b8 4e 53 20 69 73 	mov    $0x6e7520736920534e,%rax
  402b6d:	20 75 6e 
  402b70:	48 89 45 08          	mov    %rax,0x8(%rbp)
  402b74:	48 b8 61 62 6c 65 20 	mov    $0x206f7420656c6261,%rax
  402b7b:	74 6f 20 
  402b7e:	48 89 45 10          	mov    %rax,0x10(%rbp)
  402b82:	48 b8 72 65 73 6f 6c 	mov    $0x2065766c6f736572,%rax
  402b89:	76 65 20 
  402b8c:	48 89 45 18          	mov    %rax,0x18(%rbp)
  402b90:	48 b8 73 65 72 76 65 	mov    $0x6120726576726573,%rax
  402b97:	72 20 61 
  402b9a:	48 89 45 20          	mov    %rax,0x20(%rbp)
  402b9e:	c7 45 28 64 64 72 65 	movl   $0x65726464,0x28(%rbp)
  402ba5:	66 c7 45 2c 73 73    	movw   $0x7373,0x2c(%rbp)
  402bab:	c6 45 2e 00          	movb   $0x0,0x2e(%rbp)
  402baf:	89 df                	mov    %ebx,%edi
  402bb1:	e8 fa e0 ff ff       	callq  400cb0 <close@plt>
  402bb6:	b8 ff ff ff ff       	mov    $0xffffffff,%eax
  402bbb:	e9 ac 00 00 00       	jmpq   402c6c <init_driver+0x1c2>
  402bc0:	48 c7 04 24 00 00 00 	movq   $0x0,(%rsp)
  402bc7:	00 
  402bc8:	48 c7 44 24 08 00 00 	movq   $0x0,0x8(%rsp)
  402bcf:	00 00 
  402bd1:	66 c7 04 24 02 00    	movw   $0x2,(%rsp)
  402bd7:	48 8b 48 18          	mov    0x18(%rax),%rcx
  402bdb:	48 63 50 14          	movslq 0x14(%rax),%rdx
  402bdf:	48 8d 74 24 04       	lea    0x4(%rsp),%rsi
  402be4:	48 8b 39             	mov    (%rcx),%rdi
  402be7:	e8 a4 e1 ff ff       	callq  400d90 <bcopy@plt>
  402bec:	66 c7 44 24 02 47 26 	movw   $0x2647,0x2(%rsp)
  402bf3:	ba 10 00 00 00       	mov    $0x10,%edx
  402bf8:	48 89 e6             	mov    %rsp,%rsi
  402bfb:	89 df                	mov    %ebx,%edi
  402bfd:	e8 fe e1 ff ff       	callq  400e00 <connect@plt>
  402c02:	85 c0                	test   %eax,%eax
  402c04:	79 50                	jns    402c56 <init_driver+0x1ac>
  402c06:	48 b8 45 72 72 6f 72 	mov    $0x55203a726f727245,%rax
  402c0d:	3a 20 55 
  402c10:	48 89 45 00          	mov    %rax,0x0(%rbp)
  402c14:	48 b8 6e 61 62 6c 65 	mov    $0x6f7420656c62616e,%rax
  402c1b:	20 74 6f 
  402c1e:	48 89 45 08          	mov    %rax,0x8(%rbp)
  402c22:	48 b8 20 63 6f 6e 6e 	mov    $0x7463656e6e6f6320,%rax
  402c29:	65 63 74 
  402c2c:	48 89 45 10          	mov    %rax,0x10(%rbp)
  402c30:	48 b8 20 74 6f 20 73 	mov    $0x76726573206f7420,%rax
  402c37:	65 72 76 
  402c3a:	48 89 45 18          	mov    %rax,0x18(%rbp)
  402c3e:	66 c7 45 20 65 72    	movw   $0x7265,0x20(%rbp)
  402c44:	c6 45 22 00          	movb   $0x0,0x22(%rbp)
  402c48:	89 df                	mov    %ebx,%edi
  402c4a:	e8 61 e0 ff ff       	callq  400cb0 <close@plt>
  402c4f:	b8 ff ff ff ff       	mov    $0xffffffff,%eax
  402c54:	eb 16                	jmp    402c6c <init_driver+0x1c2>
  402c56:	89 df                	mov    %ebx,%edi
  402c58:	e8 53 e0 ff ff       	callq  400cb0 <close@plt>
  402c5d:	66 c7 45 00 4f 4b    	movw   $0x4b4f,0x0(%rbp)
  402c63:	c6 45 02 00          	movb   $0x0,0x2(%rbp)
  402c67:	b8 00 00 00 00       	mov    $0x0,%eax
  402c6c:	48 83 c4 18          	add    $0x18,%rsp
  402c70:	5b                   	pop    %rbx
  402c71:	5d                   	pop    %rbp
  402c72:	c3                   	retq   

0000000000402c73 <driver_post>:
  402c73:	53                   	push   %rbx
  402c74:	48 83 ec 10          	sub    $0x10,%rsp
  402c78:	4c 89 cb             	mov    %r9,%rbx
  402c7b:	45 85 c0             	test   %r8d,%r8d
  402c7e:	74 22                	je     402ca2 <driver_post+0x2f>
  402c80:	48 89 ce             	mov    %rcx,%rsi
  402c83:	bf d5 35 40 00       	mov    $0x4035d5,%edi
  402c88:	b8 00 00 00 00       	mov    $0x0,%eax
  402c8d:	e8 ee df ff ff       	callq  400c80 <printf@plt>
  402c92:	66 c7 03 4f 4b       	movw   $0x4b4f,(%rbx)
  402c97:	c6 43 02 00          	movb   $0x0,0x2(%rbx)
  402c9b:	b8 00 00 00 00       	mov    $0x0,%eax
  402ca0:	eb 39                	jmp    402cdb <driver_post+0x68>
  402ca2:	48 85 ff             	test   %rdi,%rdi
  402ca5:	74 26                	je     402ccd <driver_post+0x5a>
  402ca7:	80 3f 00             	cmpb   $0x0,(%rdi)
  402caa:	74 21                	je     402ccd <driver_post+0x5a>
  402cac:	4c 89 0c 24          	mov    %r9,(%rsp)
  402cb0:	49 89 c9             	mov    %rcx,%r9
  402cb3:	49 89 d0             	mov    %rdx,%r8
  402cb6:	48 89 f9             	mov    %rdi,%rcx
  402cb9:	48 89 f2             	mov    %rsi,%rdx
  402cbc:	be 26 47 00 00       	mov    $0x4726,%esi
  402cc1:	bf f4 30 40 00       	mov    $0x4030f4,%edi
  402cc6:	e8 9c f6 ff ff       	callq  402367 <submitr>
  402ccb:	eb 0e                	jmp    402cdb <driver_post+0x68>
  402ccd:	66 c7 03 4f 4b       	movw   $0x4b4f,(%rbx)
  402cd2:	c6 43 02 00          	movb   $0x0,0x2(%rbx)
  402cd6:	b8 00 00 00 00       	mov    $0x0,%eax
  402cdb:	48 83 c4 10          	add    $0x10,%rsp
  402cdf:	5b                   	pop    %rbx
  402ce0:	c3                   	retq   
  402ce1:	0f 1f 00             	nopl   (%rax)

0000000000402ce4 <check>:
  402ce4:	89 f8                	mov    %edi,%eax
  402ce6:	c1 e8 1c             	shr    $0x1c,%eax
  402ce9:	85 c0                	test   %eax,%eax
  402ceb:	74 1d                	je     402d0a <check+0x26>
  402ced:	b9 00 00 00 00       	mov    $0x0,%ecx
  402cf2:	eb 0b                	jmp    402cff <check+0x1b>
  402cf4:	89 f8                	mov    %edi,%eax
  402cf6:	d3 e8                	shr    %cl,%eax
  402cf8:	3c 0a                	cmp    $0xa,%al
  402cfa:	74 14                	je     402d10 <check+0x2c>
  402cfc:	83 c1 08             	add    $0x8,%ecx
  402cff:	83 f9 1f             	cmp    $0x1f,%ecx
  402d02:	7e f0                	jle    402cf4 <check+0x10>
  402d04:	b8 01 00 00 00       	mov    $0x1,%eax
  402d09:	c3                   	retq   
  402d0a:	b8 00 00 00 00       	mov    $0x0,%eax
  402d0f:	c3                   	retq   
  402d10:	b8 00 00 00 00       	mov    $0x0,%eax
  402d15:	c3                   	retq   

0000000000402d16 <gencookie>:
  402d16:	53                   	push   %rbx
  402d17:	83 c7 01             	add    $0x1,%edi
  402d1a:	e8 01 df ff ff       	callq  400c20 <srandom@plt>
  402d1f:	e8 2c e0 ff ff       	callq  400d50 <random@plt>
  402d24:	89 c3                	mov    %eax,%ebx
  402d26:	89 c7                	mov    %eax,%edi
  402d28:	e8 b7 ff ff ff       	callq  402ce4 <check>
  402d2d:	85 c0                	test   %eax,%eax
  402d2f:	74 ee                	je     402d1f <gencookie+0x9>
  402d31:	89 d8                	mov    %ebx,%eax
  402d33:	5b                   	pop    %rbx
  402d34:	c3                   	retq   
  402d35:	66 2e 0f 1f 84 00 00 	nopw   %cs:0x0(%rax,%rax,1)
  402d3c:	00 00 00 
  402d3f:	90                   	nop

0000000000402d40 <__libc_csu_init>:
  402d40:	41 57                	push   %r15
  402d42:	41 89 ff             	mov    %edi,%r15d
  402d45:	41 56                	push   %r14
  402d47:	49 89 f6             	mov    %rsi,%r14
  402d4a:	41 55                	push   %r13
  402d4c:	49 89 d5             	mov    %rdx,%r13
  402d4f:	41 54                	push   %r12
  402d51:	4c 8d 25 b8 20 20 00 	lea    0x2020b8(%rip),%r12        # 604e10 <__frame_dummy_init_array_entry>
  402d58:	55                   	push   %rbp
  402d59:	48 8d 2d b8 20 20 00 	lea    0x2020b8(%rip),%rbp        # 604e18 <__init_array_end>
  402d60:	53                   	push   %rbx
  402d61:	4c 29 e5             	sub    %r12,%rbp
  402d64:	31 db                	xor    %ebx,%ebx
  402d66:	48 c1 fd 03          	sar    $0x3,%rbp
  402d6a:	48 83 ec 08          	sub    $0x8,%rsp
  402d6e:	e8 55 de ff ff       	callq  400bc8 <_init>
  402d73:	48 85 ed             	test   %rbp,%rbp
  402d76:	74 1e                	je     402d96 <__libc_csu_init+0x56>
  402d78:	0f 1f 84 00 00 00 00 	nopl   0x0(%rax,%rax,1)
  402d7f:	00 
  402d80:	4c 89 ea             	mov    %r13,%rdx
  402d83:	4c 89 f6             	mov    %r14,%rsi
  402d86:	44 89 ff             	mov    %r15d,%edi
  402d89:	41 ff 14 dc          	callq  *(%r12,%rbx,8)
  402d8d:	48 83 c3 01          	add    $0x1,%rbx
  402d91:	48 39 eb             	cmp    %rbp,%rbx
  402d94:	75 ea                	jne    402d80 <__libc_csu_init+0x40>
  402d96:	48 83 c4 08          	add    $0x8,%rsp
  402d9a:	5b                   	pop    %rbx
  402d9b:	5d                   	pop    %rbp
  402d9c:	41 5c                	pop    %r12
  402d9e:	41 5d                	pop    %r13
  402da0:	41 5e                	pop    %r14
  402da2:	41 5f                	pop    %r15
  402da4:	c3                   	retq   
  402da5:	66 66 2e 0f 1f 84 00 	data32 nopw %cs:0x0(%rax,%rax,1)
  402dac:	00 00 00 00 

0000000000402db0 <__libc_csu_fini>:
  402db0:	f3 c3                	repz retq 
  402db2:	66 90                	xchg   %ax,%ax

Disassembly of section .fini:

0000000000402db4 <_fini>:
  402db4:	48 83 ec 08          	sub    $0x8,%rsp
  402db8:	48 83 c4 08          	add    $0x8,%rsp
  402dbc:	c3                   	retq   
